	.cpu cortex-a15
	.fpu softvfp
	.eabi_attribute 20, 1
	.eabi_attribute 21, 1
	.eabi_attribute 23, 3
	.eabi_attribute 24, 1
	.eabi_attribute 25, 1
	.eabi_attribute 26, 2
	.eabi_attribute 30, 2
	.eabi_attribute 34, 1
	.eabi_attribute 18, 4
	.file	"android.c"
#APP
	.macro	it, cond
	.endm
	.macro	itt, cond
	.endm
	.macro	ite, cond
	.endm
	.macro	ittt, cond
	.endm
	.macro	itte, cond
	.endm
	.macro	itet, cond
	.endm
	.macro	itee, cond
	.endm
	.macro	itttt, cond
	.endm
	.macro	ittte, cond
	.endm
	.macro	ittet, cond
	.endm
	.macro	ittee, cond
	.endm
	.macro	itett, cond
	.endm
	.macro	itete, cond
	.endm
	.macro	iteet, cond
	.endm
	.macro	iteee, cond
	.endm

	.text
	.align	2
	.type	composite_setup_complete, %function
composite_setup_complete:
	.fnstart
	@ args = 0, pretend = 0, frame = 0
	@ frame_needed = 0, uses_anonymous_args = 0
	@ link register save eliminated.
	bx	lr
	.fnend
	.size	composite_setup_complete, .-composite_setup_complete
	.align	2
	.type	f_midi_disable, %function
f_midi_disable:
	.fnstart
	@ args = 0, pretend = 0, frame = 0
	@ frame_needed = 0, uses_anonymous_args = 0
	.save {r4, lr}
	str	r4, [sp, #-8]!
	mov	r4, r0
	str	lr, [sp, #4]
	ldr	r0, [r0, #80]
	ldr	r3, [r0, #8]
	ldr	r3, [r3, #4]
	blx	r3
	ldr	r0, [r4, #84]
	ldr	lr, [sp, #4]
	ldr	r4, [sp]
	add	sp, sp, #8
	ldr	r3, [r0, #8]
	ldr	r3, [r3, #4]
	bx	r3
	.fnend
	.size	f_midi_disable, .-f_midi_disable
	.align	2
	.type	f_midi_snd_free, %function
f_midi_snd_free:
	.fnstart
	@ args = 0, pretend = 0, frame = 0
	@ frame_needed = 0, uses_anonymous_args = 0
	@ link register save eliminated.
	mov	r0, #0
	bx	lr
	.fnend
	.size	f_midi_snd_free, .-f_midi_snd_free
	.align	2
	.type	f_midi_in_open, %function
f_midi_in_open:
	.fnstart
	@ args = 0, pretend = 0, frame = 0
	@ frame_needed = 0, uses_anonymous_args = 0
	@ link register save eliminated.
	ldr	r2, [r0, #28]
	ldr	r3, [r0, #12]
	ldr	r2, [r2, #200]
	add	r3, r2, r3, asl #2
	ldr	r1, [r3, #224]
	cmp	r1, #0
	beq	.L7
	str	r0, [r3, #96]
	ldr	r3, [r0, #12]
	mov	r1, #0
	mov	r0, r1
	add	r3, r3, #56
	ldr	r3, [r2, r3, asl #2]
	strb	r1, [r3, #9]
.L6:
	bx	lr
.L7:
	mvn	r0, #21
	b	.L6
	.fnend
	.size	f_midi_in_open, .-f_midi_in_open
	.align	2
	.type	f_midi_in_close, %function
f_midi_in_close:
	.fnstart
	@ args = 0, pretend = 0, frame = 0
	@ frame_needed = 0, uses_anonymous_args = 0
	@ link register save eliminated.
	mov	r0, #0
	bx	lr
	.fnend
	.size	f_midi_in_close, .-f_midi_in_close
	.align	2
	.type	f_midi_out_open, %function
f_midi_out_open:
	.fnstart
	@ args = 0, pretend = 0, frame = 0
	@ frame_needed = 0, uses_anonymous_args = 0
	@ link register save eliminated.
	ldr	r1, [r0, #28]
	mov	r2, r0
	ldr	r3, [r0, #12]
	ldr	r1, [r1, #200]
	cmp	r3, #15
	addle	r3, r3, #40
	movle	r0, #0
	mvngt	r0, #21
	strle	r2, [r1, r3, asl #2]
	bx	lr
	.fnend
	.size	f_midi_out_open, .-f_midi_out_open
	.align	2
	.type	f_midi_out_close, %function
f_midi_out_close:
	.fnstart
	@ args = 0, pretend = 0, frame = 0
	@ frame_needed = 0, uses_anonymous_args = 0
	@ link register save eliminated.
	mov	r0, #0
	bx	lr
	.fnend
	.size	f_midi_out_close, .-f_midi_out_close
	.align	2
	.type	debug_reset_stats, %function
debug_reset_stats:
	.fnstart
	@ args = 0, pretend = 0, frame = 0
	@ frame_needed = 0, uses_anonymous_args = 0
	.save {lr}
	str	lr, [sp, #-4]!
	ldr	lr, .L25
.LPIC0:
	add	lr, pc, lr
	ldr	r3, [lr]
	cmp	lr, r3
	sub	r3, r3, #4
	beq	.L23
	mov	ip, #0
.L17:
	ldr	r1, [r3, #20]
	cmp	r1, #0
	beq	.L16
	str	ip, [r1, #120]
	str	ip, [r1, #124]
	str	ip, [r1, #128]
.L16:
	ldr	r3, [r3, #4]
	cmp	lr, r3
	sub	r3, r3, #4
	bne	.L17
.L23:
	mov	r0, r2
	ldr	pc, [sp], #4
.L26:
	.align	2
.L25:
	.word	.LANCHOR0-(.LPIC0+8)
	.fnend
	.size	debug_reset_stats, .-debug_reset_stats
	.align	2
	.type	debug_open, %function
debug_open:
	.fnstart
	@ args = 0, pretend = 0, frame = 0
	@ frame_needed = 0, uses_anonymous_args = 0
	@ link register save eliminated.
	mov	r0, #0
	bx	lr
	.fnend
	.size	debug_open, .-debug_open
	.align	2
	.type	rmnet_smd_debug_open, %function
rmnet_smd_debug_open:
	.fnstart
	@ args = 0, pretend = 0, frame = 0
	@ frame_needed = 0, uses_anonymous_args = 0
	@ link register save eliminated.
	ldr	r3, [r0, #348]
	mov	r0, #0
	str	r3, [r1, #124]
	bx	lr
	.fnend
	.size	rmnet_smd_debug_open, .-rmnet_smd_debug_open
	.align	2
	.type	rmnet_sdio_set_modem_cbits_w, %function
rmnet_sdio_set_modem_cbits_w:
	.fnstart
	@ args = 0, pretend = 0, frame = 0
	@ frame_needed = 0, uses_anonymous_args = 0
	@ link register save eliminated.
	ldr	r3, [r0, #-12]
	bx	lr
	.fnend
	.size	rmnet_sdio_set_modem_cbits_w, .-rmnet_sdio_set_modem_cbits_w
	.align	2
	.type	rmnet_sdio_disconnect_work, %function
rmnet_sdio_disconnect_work:
	.fnstart
	@ args = 0, pretend = 0, frame = 0
	@ frame_needed = 0, uses_anonymous_args = 0
	@ link register save eliminated.
	bx	lr
	.fnend
	.size	rmnet_sdio_disconnect_work, .-rmnet_sdio_disconnect_work
	.align	2
	.type	rmnet_sdio_reset_stats, %function
rmnet_sdio_reset_stats:
	.fnstart
	@ args = 0, pretend = 0, frame = 0
	@ frame_needed = 0, uses_anonymous_args = 0
	@ link register save eliminated.
	ldr	r3, [r0, #124]
	mov	r1, #0
	mov	r0, r2
	str	r1, [r3, #344]
	str	r1, [r3, #348]
	str	r1, [r3, #356]
	str	r1, [r3, #360]
	str	r1, [r3, #316]
	str	r1, [r3, #352]
	bx	lr
	.fnend
	.size	rmnet_sdio_reset_stats, .-rmnet_sdio_reset_stats
	.align	2
	.type	debug_rmnet_sdio_open, %function
debug_rmnet_sdio_open:
	.fnstart
	@ args = 0, pretend = 0, frame = 0
	@ frame_needed = 0, uses_anonymous_args = 0
	@ link register save eliminated.
	ldr	r3, [r0, #348]
	mov	r0, #0
	str	r3, [r1, #124]
	bx	lr
	.fnend
	.size	debug_rmnet_sdio_open, .-debug_rmnet_sdio_open
	.section	.text.unlikely,"ax",%progbits
	.align	2
	.type	xport_to_str, %function
xport_to_str:
	.fnstart
	@ args = 0, pretend = 0, frame = 0
	@ frame_needed = 0, uses_anonymous_args = 0
	@ link register save eliminated.
	sub	r0, r0, #1
	cmp	r0, #9
	addls	pc, pc, r0, asl #2
	b	.L34
.L36:
	b	.L46
	b	.L37
	b	.L38
	b	.L39
	b	.L40
	b	.L41
	b	.L42
	b	.L43
	b	.L44
	b	.L45
	.p2align 1
.L37:
	ldr	r0, .L47
.LPIC4:
	add	r0, pc, r0
	bx	lr
.L38:
	ldr	r0, .L47+4
.LPIC5:
	add	r0, pc, r0
	bx	lr
.L39:
	ldr	r0, .L47+8
.LPIC6:
	add	r0, pc, r0
	bx	lr
.L40:
	ldr	r0, .L47+12
.LPIC7:
	add	r0, pc, r0
	bx	lr
.L41:
	ldr	r0, .L47+16
.LPIC8:
	add	r0, pc, r0
	bx	lr
.L42:
	ldr	r0, .L47+20
.LPIC9:
	add	r0, pc, r0
	bx	lr
.L43:
	ldr	r0, .L47+24
.LPIC10:
	add	r0, pc, r0
	bx	lr
.L44:
	ldr	r0, .L47+28
.LPIC11:
	add	r0, pc, r0
	bx	lr
.L45:
	ldr	r0, .L47+32
.LPIC12:
	add	r0, pc, r0
	bx	lr
.L34:
	ldr	r0, .L47+36
.LPIC13:
	add	r0, pc, r0
	bx	lr
.L46:
	ldr	r0, .L47+40
.LPIC3:
	add	r0, pc, r0
	bx	lr
.L48:
	.align	2
.L47:
	.word	.LC1-(.LPIC4+8)
	.word	.LC2-(.LPIC5+8)
	.word	.LC3-(.LPIC6+8)
	.word	.LC4-(.LPIC7+8)
	.word	.LC5-(.LPIC8+8)
	.word	.LC6-(.LPIC9+8)
	.word	.LC7-(.LPIC10+8)
	.word	.LC8-(.LPIC11+8)
	.word	.LC9-(.LPIC12+8)
	.word	.LC10-(.LPIC13+8)
	.word	.LC0-(.LPIC3+8)
	.fnend
	.size	xport_to_str, .-xport_to_str
	.text
	.align	2
	.type	rmnet_mux_suspend, %function
rmnet_mux_suspend:
	.fnstart
	@ args = 0, pretend = 0, frame = 0
	@ frame_needed = 0, uses_anonymous_args = 0
	@ link register save eliminated.
	ldr	r3, [r0, #360]
	cmp	r3, #0
	beq	.L49
	ldr	r3, [r0, #340]
	bic	r3, r3, #2
	str	r3, [r0, #340]
.L49:
	bx	lr
	.fnend
	.size	rmnet_mux_suspend, .-rmnet_mux_suspend
	.align	2
	.type	rmnet_mux_unbind, %function
rmnet_mux_unbind:
	.fnstart
	@ args = 0, pretend = 0, frame = 0
	@ frame_needed = 0, uses_anonymous_args = 0
	@ link register save eliminated.
	mov	r3, #0
	str	r3, [r1, #164]
	bx	lr
	.fnend
	.size	rmnet_mux_unbind, .-rmnet_mux_unbind
	.align	2
	.type	rmnet_mux_reset_stats, %function
rmnet_mux_reset_stats:
	.fnstart
	@ args = 0, pretend = 0, frame = 0
	@ frame_needed = 0, uses_anonymous_args = 0
	@ link register save eliminated.
	ldr	r3, [r0, #124]
	mov	r1, #0
	mov	r0, r2
	str	r1, [r3, #396]
	str	r1, [r3, #404]
	str	r1, [r3, #408]
	str	r1, [r3, #392]
	str	r1, [r3, #388]
	str	r1, [r3, #300]
	str	r1, [r3, #400]
	str	r1, [r3, #412]
	bx	lr
	.fnend
	.size	rmnet_mux_reset_stats, .-rmnet_mux_reset_stats
	.align	2
	.type	dbg_rmnet_mux_open, %function
dbg_rmnet_mux_open:
	.fnstart
	@ args = 0, pretend = 0, frame = 0
	@ frame_needed = 0, uses_anonymous_args = 0
	@ link register save eliminated.
	ldr	r3, [r0, #348]
	mov	r0, #0
	str	r3, [r1, #124]
	bx	lr
	.fnend
	.size	dbg_rmnet_mux_open, .-dbg_rmnet_mux_open
	.align	2
	.type	audio_control_complete, %function
audio_control_complete:
	.fnstart
	@ args = 0, pretend = 0, frame = 0
	@ frame_needed = 0, uses_anonymous_args = 0
	@ link register save eliminated.
	bx	lr
	.fnend
	.size	audio_control_complete, .-audio_control_complete
	.align	2
	.type	audio_pcm_prepare, %function
audio_pcm_prepare:
	.fnstart
	@ args = 0, pretend = 0, frame = 0
	@ frame_needed = 0, uses_anonymous_args = 0
	.save {r4, lr}
	str	r4, [sp, #-8]!
	mov	ip, r0
	str	lr, [sp, #4]
	ldr	r1, [r0, #164]
	mov	lr, #0
	mov	r0, lr
	ldr	r4, [r1, #88]
	ldr	r2, [r1, #68]
	ldr	r3, [r1, #208]
	mul	r2, r2, r4
	str	lr, [r3, #120]
	mov	r2, r2, lsr #3
	str	r2, [r3, #116]
	ldr	r2, [r1, #548]
	str	r2, [r3, #104]
	ldr	r1, [ip, #164]
	ldr	ip, [r1, #88]
	ldr	r1, [r1, #76]
	str	r2, [r3, #112]
	mul	r1, r1, ip
	add	r2, r2, r1, lsr #3
	str	r2, [r3, #108]
	ldr	r4, [sp]
	add	sp, sp, #4
	ldr	pc, [sp], #4
	.fnend
	.size	audio_pcm_prepare, .-audio_pcm_prepare
	.align	2
	.type	audio_pcm_pointer, %function
audio_pcm_pointer:
	.fnstart
	@ args = 0, pretend = 0, frame = 0
	@ frame_needed = 0, uses_anonymous_args = 0
	@ link register save eliminated.
	ldr	r3, [r0, #164]
	ldr	r2, [r3, #208]
	ldr	r0, [r3, #88]
	ldr	r3, [r2, #112]
	ldr	r2, [r2, #104]
	rsb	r3, r2, r3
	mov	r3, r3, asl #3
	udiv	r0, r3, r0
	bx	lr
	.fnend
	.size	audio_pcm_pointer, .-audio_pcm_pointer
	.align	2
	.type	ffs_ep0_ioctl, %function
ffs_ep0_ioctl:
	.fnstart
	@ args = 0, pretend = 0, frame = 0
	@ frame_needed = 0, uses_anonymous_args = 0
	ldr	r3, [r0, #124]
	movw	r0, #26496
	cmp	r1, r0
	ldr	r0, [r3]
	beq	.L73
	cmp	r0, #0
	beq	.L69
	ldr	r3, [r0]
	ldr	r3, [r3, #24]
	cmp	r3, #0
	beq	.L69
	bx	r3
.L73:
	ldr	r3, [r3, #136]
	cmp	r3, #0
	beq	.L66
	.save {lr}
	str	lr, [sp, #-4]!
	mov	ip, r2
	ldr	r2, [r3, #8]
	ldr	lr, [r3, #44]
	ldrh	r1, [r2, #182]
	cmp	r1, #0
	beq	.L67
	uxtb	ip, ip
	mov	r2, lr
.L65:
	mov	r0, r2
	ldrh	r3, [r2], #2
	sxth	r3, r3
	cmp	r3, #0
	blt	.L64
	cmp	r3, ip
	beq	.L74
.L64:
	subs	r1, r1, #1
	bne	.L65
.L67:
	mvn	r0, #32
	ldr	pc, [sp], #4
.L74:
	rsb	r0, lr, r0
	mov	r0, r0, asr #1
	ldr	pc, [sp], #4
.L66:
	mvn	r0, #18
	bx	lr
.L69:
	mvn	r0, #24
	bx	lr
	.fnend
	.size	ffs_ep0_ioctl, .-ffs_ep0_ioctl
	.align	2
	.type	fsg_lun_release, %function
fsg_lun_release:
	.fnstart
	@ args = 0, pretend = 0, frame = 0
	@ frame_needed = 0, uses_anonymous_args = 0
	@ link register save eliminated.
	bx	lr
	.fnend
	.size	fsg_lun_release, .-fsg_lun_release
	.align	2
	.type	serial_debug_open, %function
serial_debug_open:
	.fnstart
	@ args = 0, pretend = 0, frame = 0
	@ frame_needed = 0, uses_anonymous_args = 0
	@ link register save eliminated.
	ldr	r3, [r0, #348]
	mov	r0, #0
	str	r3, [r1, #124]
	bx	lr
	.fnend
	.size	serial_debug_open, .-serial_debug_open
	.align	2
	.type	debug_sdio_open, %function
debug_sdio_open:
	.fnstart
	@ args = 0, pretend = 0, frame = 0
	@ frame_needed = 0, uses_anonymous_args = 0
	@ link register save eliminated.
	mov	r0, #0
	bx	lr
	.fnend
	.size	debug_sdio_open, .-debug_sdio_open
	.align	2
	.type	debug_smd_open, %function
debug_smd_open:
	.fnstart
	@ args = 0, pretend = 0, frame = 0
	@ frame_needed = 0, uses_anonymous_args = 0
	@ link register save eliminated.
	mov	r0, #0
	bx	lr
	.fnend
	.size	debug_smd_open, .-debug_smd_open
	.align	2
	.type	gbam_endless_rx_complete, %function
gbam_endless_rx_complete:
	.fnstart
	@ args = 0, pretend = 0, frame = 0
	@ frame_needed = 0, uses_anonymous_args = 0
	@ link register save eliminated.
	bx	lr
	.fnend
	.size	gbam_endless_rx_complete, .-gbam_endless_rx_complete
	.align	2
	.type	gbam_endless_tx_complete, %function
gbam_endless_tx_complete:
	.fnstart
	@ args = 0, pretend = 0, frame = 0
	@ frame_needed = 0, uses_anonymous_args = 0
	@ link register save eliminated.
	bx	lr
	.fnend
	.size	gbam_endless_tx_complete, .-gbam_endless_tx_complete
	.align	2
	.type	gbam_wake_cb, %function
gbam_wake_cb:
	.fnstart
	@ args = 0, pretend = 0, frame = 0
	@ frame_needed = 0, uses_anonymous_args = 0
	@ link register save eliminated.
	ldr	r3, [r0, #16]
	ldr	r3, [r3, #120]
	ldr	r0, [r3]
	ldr	r3, [r0]
	ldr	r3, [r3, #4]
	cmp	r3, #0
	beq	.L82
	bx	r3
.L82:
	mvn	r0, #94
	bx	lr
	.fnend
	.size	gbam_wake_cb, .-gbam_wake_cb
	.align	2
	.type	ghsic_ctrl_receive, %function
ghsic_ctrl_receive:
	.fnstart
	@ args = 0, pretend = 0, frame = 0
	@ frame_needed = 0, uses_anonymous_args = 0
	cmp	r0, #0
	bxeq	lr
	ldr	r3, [r0, #52]
	cmp	r3, #0
	beq	.L86
	.save {r4, lr}
	str	r4, [sp, #-8]!
	mov	r4, r0
	str	lr, [sp, #4]
	ldr	r0, [r0, #8]
	blx	r3
	ldr	r3, [r4, #100]
	add	r3, r3, #1
	str	r3, [r4, #100]
	ldr	r4, [sp]
	add	sp, sp, #4
	ldr	pc, [sp], #4
.L86:
	mov	r0, r3
	bx	lr
	.fnend
	.size	ghsic_ctrl_receive, .-ghsic_ctrl_receive
	.align	2
	.type	ghsic_ctrl_status, %function
ghsic_ctrl_status:
	.fnstart
	@ args = 0, pretend = 0, frame = 0
	@ frame_needed = 0, uses_anonymous_args = 0
	@ link register save eliminated.
	ldr	r3, [r0, #8]
	str	r1, [r0, #92]
	cmp	r3, #0
	beq	.L89
	ldr	r2, [r3, #128]
	cmp	r2, #0
	beq	.L89
	mov	r0, r3
	bx	r2
.L89:
	bx	lr
	.fnend
	.size	ghsic_ctrl_status, .-ghsic_ctrl_status
	.align	2
	.global	gser_get_dtr
	.type	gser_get_dtr, %function
gser_get_dtr:
	.fnstart
	@ args = 0, pretend = 0, frame = 0
	@ frame_needed = 0, uses_anonymous_args = 0
	@ link register save eliminated.
	ldrh	r0, [r0, #168]
	and	r0, r0, #1
	bx	lr
	.fnend
	.size	gser_get_dtr, .-gser_get_dtr
	.align	2
	.global	gser_get_rts
	.type	gser_get_rts, %function
gser_get_rts:
	.fnstart
	@ args = 0, pretend = 0, frame = 0
	@ frame_needed = 0, uses_anonymous_args = 0
	@ link register save eliminated.
	ldrh	r0, [r0, #168]
	ubfx	r0, r0, #1, #1
	bx	lr
	.fnend
	.size	gser_get_rts, .-gser_get_rts
	.align	2
	.type	ccid_bulk_release, %function
ccid_bulk_release:
	.fnstart
	@ args = 0, pretend = 0, frame = 0
	@ frame_needed = 0, uses_anonymous_args = 0
	@ link register save eliminated.
	ldr	r2, [r1, #124]
	mov	r3, #0
	mov	r0, r3
	str	r3, [r2, #144]
	bx	lr
	.fnend
	.size	ccid_bulk_release, .-ccid_bulk_release
	.align	2
	.type	ccid_ctrl_release, %function
ccid_ctrl_release:
	.fnstart
	@ args = 0, pretend = 0, frame = 0
	@ frame_needed = 0, uses_anonymous_args = 0
	@ link register save eliminated.
	ldr	r2, [r1, #124]
	mov	r3, #0
	mov	r0, r3
	str	r3, [r2, #108]
	bx	lr
	.fnend
	.size	ccid_ctrl_release, .-ccid_ctrl_release
	.align	2
	.type	acc_hid_start, %function
acc_hid_start:
	.fnstart
	@ args = 0, pretend = 0, frame = 0
	@ frame_needed = 0, uses_anonymous_args = 0
	@ link register save eliminated.
	mov	r0, #0
	bx	lr
	.fnend
	.size	acc_hid_start, .-acc_hid_start
	.align	2
	.type	acc_hid_stop, %function
acc_hid_stop:
	.fnstart
	@ args = 0, pretend = 0, frame = 0
	@ frame_needed = 0, uses_anonymous_args = 0
	@ link register save eliminated.
	bx	lr
	.fnend
	.size	acc_hid_stop, .-acc_hid_stop
	.align	2
	.type	acc_hid_open, %function
acc_hid_open:
	.fnstart
	@ args = 0, pretend = 0, frame = 0
	@ frame_needed = 0, uses_anonymous_args = 0
	@ link register save eliminated.
	mov	r0, #0
	bx	lr
	.fnend
	.size	acc_hid_open, .-acc_hid_open
	.align	2
	.type	acc_hid_close, %function
acc_hid_close:
	.fnstart
	@ args = 0, pretend = 0, frame = 0
	@ frame_needed = 0, uses_anonymous_args = 0
	@ link register save eliminated.
	bx	lr
	.fnend
	.size	acc_hid_close, .-acc_hid_close
	.align	2
	.type	rndis_response_available, %function
rndis_response_available:
	.fnstart
	@ args = 0, pretend = 0, frame = 0
	@ frame_needed = 0, uses_anonymous_args = 0
	strd	r4, [sp, #-16]!
	.save {r4, r5, r6, lr}
	add	r5, r0, #168
	str	r6, [sp, #8]
	str	lr, [sp, #12]
	ldr	r1, [r0, #164]
	ldr	ip, [r1]
#APP
@ 61 "/home/ikke/Workspace/kernel_oneplus_onyx/arch/arm/include/asm/atomic.h" 1
	dmb
@ 0 "" 2
@ 63 "/home/ikke/Workspace/kernel_oneplus_onyx/arch/arm/include/asm/atomic.h" 1
	@ atomic_add_return
1:	ldrex	r3, [r5]
	add	r3, r3, #1
	strex	r2, r3, [r5]
	teq	r2, #0
	bne	1b
@ 0 "" 2
@ 73 "/home/ikke/Workspace/kernel_oneplus_onyx/arch/arm/include/asm/atomic.h" 1
	dmb
@ 0 "" 2
	cmp	r3, #1
	beq	.L116
.L105:
	ldrd	r4, [sp]
	ldr	r6, [sp, #8]
	add	sp, sp, #12
	ldr	pc, [sp], #4
.L116:
	ldr	r2, [r0, #160]
	ldr	r2, [r2]
	cmp	r2, #0
	beq	.L105
	mov	r4, r0
	mov	r0, #0
	str	r3, [ip]
	mov	r2, #32
	str	r0, [ip, #4]
	ldr	r0, [r4, #160]
	ldr	r3, [r0, #8]
	ldr	r3, [r3, #16]
	blx	r3
	cmp	r0, #0
	beq	.L105
#APP
@ 83 "/home/ikke/Workspace/kernel_oneplus_onyx/arch/arm/include/asm/atomic.h" 1
	@ atomic_sub
1:	ldrex	r3, [r5]
	sub	r3, r3, #1
	strex	r2, r3, [r5]
	teq	r2, #0
	bne	1b
@ 0 "" 2
	b	.L105
	.fnend
	.size	rndis_response_available, .-rndis_response_available
	.align	2
	.type	rndis_response_complete, %function
rndis_response_complete:
	.fnstart
	@ args = 0, pretend = 0, frame = 0
	@ frame_needed = 0, uses_anonymous_args = 0
	strd	r4, [sp, #-16]!
	.save {r4, r5, r6, lr}
	ldr	r4, [r1, #32]
	str	r6, [sp, #8]
	ldr	r2, [r1, #44]
	str	lr, [sp, #12]
	ldr	r3, [r4, #20]
	cmp	r3, #0
	beq	.L117
	ldr	r3, [r3, #24]
	cmp	r3, #0
	beq	.L117
	cmn	r2, #108
	beq	.L122
	cmn	r2, #104
	beq	.L122
	ldr	r3, [r4, #160]
	cmp	r3, r0
	beq	.L140
.L117:
	ldrd	r4, [sp]
	ldr	r6, [sp, #8]
	add	sp, sp, #12
	ldr	pc, [sp], #4
.L122:
	mov	r3, #0
	str	r3, [r4, #168]
	b	.L117
.L140:
	add	r5, r4, #168
#APP
@ 99 "/home/ikke/Workspace/kernel_oneplus_onyx/arch/arm/include/asm/atomic.h" 1
	dmb
@ 0 "" 2
@ 101 "/home/ikke/Workspace/kernel_oneplus_onyx/arch/arm/include/asm/atomic.h" 1
	@ atomic_sub_return
1:	ldrex	r3, [r5]
	sub	r3, r3, #1
	strex	r2, r3, [r5]
	teq	r2, #0
	bne	1b
@ 0 "" 2
@ 111 "/home/ikke/Workspace/kernel_oneplus_onyx/arch/arm/include/asm/atomic.h" 1
	dmb
@ 0 "" 2
	cmp	r3, #0
	beq	.L117
	ldr	r0, [r4, #160]
	mov	r2, #32
	ldr	r3, [r0, #8]
	ldr	r3, [r3, #16]
	blx	r3
	cmp	r0, #0
	beq	.L117
#APP
@ 83 "/home/ikke/Workspace/kernel_oneplus_onyx/arch/arm/include/asm/atomic.h" 1
	@ atomic_sub
1:	ldrex	r3, [r5]
	sub	r3, r3, #1
	strex	r2, r3, [r5]
	teq	r2, #0
	bne	1b
@ 0 "" 2
	b	.L117
	.fnend
	.size	rndis_response_complete, .-rndis_response_complete
	.align	2
	.type	ecm_qc_get_alt, %function
ecm_qc_get_alt:
	.fnstart
	@ args = 0, pretend = 0, frame = 0
	@ frame_needed = 0, uses_anonymous_args = 0
	@ link register save eliminated.
	ldrb	r3, [r0, #112]	@ zero_extendqisi2
	cmp	r3, r1
	moveq	r0, #0
	beq	.L142
	ldr	r3, [r0, #80]
	ldr	r0, [r3]
	adds	r0, r0, #0
	movne	r0, #1
.L142:
	bx	lr
	.fnend
	.size	ecm_qc_get_alt, .-ecm_qc_get_alt
	.align	2
	.type	mbim_get_alt, %function
mbim_get_alt:
	.fnstart
	@ args = 0, pretend = 0, frame = 0
	@ frame_needed = 0, uses_anonymous_args = 0
	@ link register save eliminated.
	ldrb	r3, [r0, #188]	@ zero_extendqisi2
	cmp	r3, r1
	moveq	r0, #0
	beq	.L145
	ldrb	r3, [r0, #189]	@ zero_extendqisi2
	cmp	r3, r1
	ldreqb	r0, [r0, #190]	@ zero_extendqisi2
	mvnne	r0, #21
.L145:
	bx	lr
	.fnend
	.size	mbim_get_alt, .-mbim_get_alt
	.align	2
	.type	bam_data_endless_rx_complete, %function
bam_data_endless_rx_complete:
	.fnstart
	@ args = 0, pretend = 0, frame = 0
	@ frame_needed = 0, uses_anonymous_args = 0
	@ link register save eliminated.
	bx	lr
	.fnend
	.size	bam_data_endless_rx_complete, .-bam_data_endless_rx_complete
	.align	2
	.type	bam_data_endless_tx_complete, %function
bam_data_endless_tx_complete:
	.fnstart
	@ args = 0, pretend = 0, frame = 0
	@ frame_needed = 0, uses_anonymous_args = 0
	@ link register save eliminated.
	bx	lr
	.fnend
	.size	bam_data_endless_tx_complete, .-bam_data_endless_tx_complete
	.align	2
	.type	ecm_notify_complete, %function
ecm_notify_complete:
	.fnstart
	@ args = 0, pretend = 0, frame = 0
	@ frame_needed = 0, uses_anonymous_args = 0
	ldr	r3, [r1, #44]
	strd	r4, [sp, #-16]!
	.save {r4, r5, r6, lr}
	ldr	r5, [r1, #32]
	str	r6, [sp, #8]
	str	lr, [sp, #12]
	cmn	r3, #108
	beq	.L152
	cmn	r3, #104
	beq	.L152
.L151:
	ldr	r3, [r5, #20]
	cmp	r1, #0
	str	r1, [r5, #160]
	ldr	r0, [r3, #24]
	beq	.L150
	ldrb	r2, [r5, #164]	@ zero_extendqisi2
	ldr	r3, [r1]
	cmp	r2, #1
	beq	.L156
	bcc	.L150
	cmp	r2, #2
	bne	.L155
	mov	r2, #0
	mov	ip, #8
	mov	r4, #42
	mov	lr, #16
	strb	r2, [r3, #2]
	strb	r4, [r3, #1]
	strb	r2, [r3, #3]
	strb	r2, [r3, #7]
	strb	ip, [r3, #6]
	ldr	ip, [r1]
	str	lr, [r1, #4]
	ldr	r2, [r0]
	ldr	r0, [r2, #20]
	cmp	r0, #4
	bhi	.L173
	cmp	r0, #2
	movls	r2, #28672
	movtls	r2, 148
	bls	.L159
	ldr	r2, [r2, #16]
.L160:
	mov	r0, #28672
	mov	lr, #0
	cmp	r2, #3
	movt	r0, 148
	movt	lr, 6500
	movne	r2, r0
	moveq	r2, lr
.L159:
	mov	r0, #0
	str	r2, [ip, #8]
	str	r2, [ip, #12]
	strb	r0, [r5, #164]
.L155:
	mvn	r0, #94
	mov	ip, #0
	mov	r2, #32
	mov	r4, r1
	strb	r0, [r3]
	ldrb	r0, [r5, #140]	@ zero_extendqisi2
	strh	r0, [r3, #4]	@ unaligned
	ldr	r0, [r5, #156]
	str	ip, [r5, #160]
	ldr	r3, [r0, #8]
	ldr	r3, [r3, #16]
	blx	r3
	cmp	r0, #0
	strlt	r4, [r5, #160]
.L150:
	ldrd	r4, [sp]
	ldr	r6, [sp, #8]
	add	sp, sp, #12
	ldr	pc, [sp], #4
.L152:
	mov	r3, #0
	strb	r3, [r5, #164]
	b	.L151
.L156:
	mov	r2, #0
	mov	ip, #8
	mov	r0, #2
	strb	r2, [r3, #1]
	ldrb	lr, [r5, #165]	@ zero_extendqisi2
	strb	r2, [r3, #6]
	strb	r2, [r3, #7]
	strh	lr, [r3, #2]	@ unaligned
	str	ip, [r1, #4]
	strb	r0, [r5, #164]
	b	.L155
.L173:
	ldr	r2, [r2, #16]
	cmp	r2, #5
	bne	.L160
	mov	r2, #0
	movt	r2, 13000
	b	.L159
	.fnend
	.size	ecm_notify_complete, .-ecm_notify_complete
	.align	2
	.type	ecm_get_alt, %function
ecm_get_alt:
	.fnstart
	@ args = 0, pretend = 0, frame = 0
	@ frame_needed = 0, uses_anonymous_args = 0
	@ link register save eliminated.
	ldrb	r3, [r0, #140]	@ zero_extendqisi2
	cmp	r3, r1
	moveq	r0, #0
	beq	.L175
	ldr	r3, [r0, #80]
	ldr	r0, [r3]
	adds	r0, r0, #0
	movne	r0, #1
.L175:
	bx	lr
	.fnend
	.size	ecm_get_alt, .-ecm_get_alt
	.align	2
	.type	prealloc, %function
prealloc:
	.fnstart
	@ args = 0, pretend = 0, frame = 0
	@ frame_needed = 0, uses_anonymous_args = 0
	cmp	r2, #0
	beq	.L202
	strd	r4, [sp, #-24]!
	.save {r4, r5, r6, r7, r8, lr}
	mov	r5, r0
	strd	r6, [sp, #8]
	mov	r6, r1
	str	r8, [sp, #16]
	str	lr, [sp, #20]
	ldr	r3, [r0]
	cmp	r0, r3
	sub	r3, r3, #36
	beq	.L179
	sub	r2, r2, #1
	b	.L180
.L182:
	cmp	r2, #0
	mov	r2, r1
	beq	.L204
.L180:
	ldr	r3, [r3, #36]
	sub	r1, r2, #1
	cmp	r5, r3
	sub	r3, r3, #36
	bne	.L182
	ldr	r3, [r6, #28]
	cmp	r2, #0
	mov	r4, r1
	ldrb	r3, [r3, #2]	@ zero_extendqisi2
	mov	r3, r3, lsr #7
	beq	.L203
.L183:
	cmp	r3, #0
	bne	.L185
	ldr	r7, .L206
.LPIC22:
	add	r7, pc, r7
	b	.L187
.L205:
	str	r7, [r0, #28]
	ldr	r2, [r5]
	cmp	r4, #0
	mov	r4, r1
	str	r3, [r2, #4]
	str	r2, [r0, #36]
	str	r5, [r0, #40]
	str	r3, [r5]
	beq	.L203
.L187:
	ldr	r3, [r6, #8]
	mov	r1, #32
	mov	r0, r6
	ldr	r3, [r3, #8]
	blx	r3
	cmp	r0, #0
	sub	r1, r4, #1
	add	r3, r0, #36
	bne	.L205
.L186:
	ldr	r3, [r5]
	cmp	r5, r3
	beq	.L178
.L203:
	mov	r0, #0
.L200:
	ldrd	r4, [sp]
	ldrd	r6, [sp, #8]
	ldr	r8, [sp, #16]
	add	sp, sp, #20
	ldr	pc, [sp], #4
.L204:
	mov	r8, #256
	mov	r7, #512
.L181:
	ldr	r4, [r3, #36]
	mov	r1, r3
	mov	r0, r6
	ldr	r2, [r3, #40]
	str	r2, [r4, #4]
	str	r4, [r2]
	str	r8, [r3, #36]
	str	r7, [r3, #40]
	ldr	r3, [r6, #8]
	ldr	r3, [r3, #12]
	blx	r3
	cmp	r4, r5
	sub	r3, r4, #36
	bne	.L181
	b	.L203
.L185:
	ldr	r7, .L206+4
.LPIC23:
	add	r7, pc, r7
	b	.L190
.L189:
	str	r7, [r0, #28]
	ldr	r2, [r5]
	cmp	r4, #0
	mov	r4, r1
	str	r3, [r2, #4]
	str	r2, [r0, #36]
	str	r5, [r0, #40]
	str	r3, [r5]
	beq	.L203
.L190:
	ldr	r3, [r6, #8]
	mov	r1, #32
	mov	r0, r6
	ldr	r3, [r3, #8]
	blx	r3
	cmp	r0, #0
	sub	r1, r4, #1
	add	r3, r0, #36
	bne	.L189
	b	.L186
.L179:
	ldr	r3, [r1, #28]
	sub	r4, r2, #1
	ldrb	r3, [r3, #2]	@ zero_extendqisi2
	mov	r3, r3, lsr #7
	b	.L183
.L202:
	mvn	r0, #11
	bx	lr
.L178:
	mvn	r0, #11
	b	.L200
.L207:
	.align	2
.L206:
	.word	rx_complete-(.LPIC22+8)
	.word	tx_complete-(.LPIC23+8)
	.fnend
	.size	prealloc, .-prealloc
	.align	2
	.type	eth_qc_start_xmit, %function
eth_qc_start_xmit:
	.fnstart
	@ args = 0, pretend = 0, frame = 0
	@ frame_needed = 0, uses_anonymous_args = 0
	@ link register save eliminated.
	mov	r0, #0
	bx	lr
	.fnend
	.size	eth_qc_start_xmit, .-eth_qc_start_xmit
	.align	2
	.type	f_audio_get_alt, %function
f_audio_get_alt:
	.fnstart
	@ args = 0, pretend = 0, frame = 0
	@ frame_needed = 0, uses_anonymous_args = 0
	@ link register save eliminated.
	ldr	r3, .L214
.LPIC25:
	ldr	r3, [pc, r3]		@ tls_load_dot_plus_eight
	ldrb	r2, [r3, #8]	@ zero_extendqisi2
	cmp	r2, r1
	beq	.L213
	ldrb	r3, [r3, #9]	@ zero_extendqisi2
	cmp	r3, r1
	ldreqb	r0, [r0, #241]	@ zero_extendqisi2
	movne	r0, #0
	bx	lr
.L213:
	ldrb	r0, [r0, #240]	@ zero_extendqisi2
	bx	lr
.L215:
	.align	2
.L214:
	.word	uac1_ac_header_desc(GOT_PREL)+(.-(.LPIC25+8))
	.fnend
	.size	f_audio_get_alt, .-f_audio_get_alt
	.align	2
	.type	generic_set_cmd, %function
generic_set_cmd:
	.fnstart
	@ args = 0, pretend = 0, frame = 0
	@ frame_needed = 0, uses_anonymous_args = 0
	@ link register save eliminated.
	add	r1, r1, #4
	str	r2, [r0, r1, asl #2]
	mov	r0, #0
	bx	lr
	.fnend
	.size	generic_set_cmd, .-generic_set_cmd
	.align	2
	.type	generic_get_cmd, %function
generic_get_cmd:
	.fnstart
	@ args = 0, pretend = 0, frame = 0
	@ frame_needed = 0, uses_anonymous_args = 0
	@ link register save eliminated.
	add	r1, r1, #4
	ldr	r0, [r0, r1, asl #2]
	bx	lr
	.fnend
	.size	generic_get_cmd, .-generic_get_cmd
	.align	2
	.type	ncm_ep0out_complete, %function
ncm_ep0out_complete:
	.fnstart
	@ args = 0, pretend = 0, frame = 0
	@ frame_needed = 0, uses_anonymous_args = 0
	ldr	r3, [r1, #44]
	mov	r2, #0
	ldr	ip, [r1, #32]
	str	r2, [r1, #32]
	cmp	r3, r2
	bne	.L223
	ldr	r2, [r1, #48]
	ldr	r3, [r1, #4]
	cmp	r2, r3
	beq	.L224
.L223:
	ldr	r3, [r0, #8]
	mov	r1, #1
	ldr	r3, [r3, #24]
	bx	r3
.L224:
	.save {lr}
	str	lr, [sp, #-4]!
	ldr	r1, [r1]
	ldrb	r3, [r1, #2]	@ zero_extendqisi2
	ldrb	lr, [r1, #1]	@ zero_extendqisi2
	ldrb	r2, [r1]	@ zero_extendqisi2
	ldrb	r1, [r1, #3]	@ zero_extendqisi2
	mov	r3, r3, asl #16
	orr	r3, r3, lr, asl #8
	orr	r3, r3, r2
	orr	r3, r3, r1, asl #24
	cmp	r3, #2048
	bcc	.L219
	ldr	r2, .L225
.LPIC26:
	add	r2, pc, r2
	ldr	r2, [r2, #4]
	cmp	r2, r3
	strcs	r3, [ip, #104]
	bcs	.L221
.L219:
	ldr	r3, [r0, #8]
	mov	r1, #1
	ldr	lr, [sp], #4
	ldr	r3, [r3, #24]
	bx	r3
.L221:
	ldr	pc, [sp], #4
.L226:
	.align	2
.L225:
	.word	.LANCHOR1-(.LPIC26+8)
	.fnend
	.size	ncm_ep0out_complete, .-ncm_ep0out_complete
	.align	2
	.type	ncm_get_alt, %function
ncm_get_alt:
	.fnstart
	@ args = 0, pretend = 0, frame = 0
	@ frame_needed = 0, uses_anonymous_args = 0
	@ link register save eliminated.
	ldrb	r3, [r0, #140]	@ zero_extendqisi2
	cmp	r3, r1
	moveq	r0, #0
	beq	.L228
	ldr	r3, [r0, #80]
	ldr	r0, [r3]
	adds	r0, r0, #0
	movne	r0, #1
.L228:
	bx	lr
	.fnend
	.size	ncm_get_alt, .-ncm_get_alt
	.align	2
	.type	charger_disable, %function
charger_disable:
	.fnstart
	@ args = 0, pretend = 0, frame = 0
	@ frame_needed = 0, uses_anonymous_args = 0
	.save {r4, lr}
	str	r4, [sp, #-8]!
	mov	r4, r0
	str	lr, [sp, #4]
	ldr	r0, [r0, #-4]
	ldr	r3, [r0, #8]
	ldr	r3, [r3, #4]
	blx	r3
	ldr	r3, [r4, #-4]
	mov	r2, #0
	str	r2, [r3]
	ldr	r4, [sp]
	add	sp, sp, #4
	ldr	pc, [sp], #4
	.fnend
	.size	charger_disable, .-charger_disable
	.align	2
	.type	qdss_function_init, %function
qdss_function_init:
	.fnstart
	@ args = 0, pretend = 0, frame = 0
	@ frame_needed = 0, uses_anonymous_args = 0
	@ link register save eliminated.
	mov	r0, #0
	bx	lr
	.fnend
	.size	qdss_function_init, .-qdss_function_init
	.align	2
	.type	ptp_function_init, %function
ptp_function_init:
	.fnstart
	@ args = 0, pretend = 0, frame = 0
	@ frame_needed = 0, uses_anonymous_args = 0
	@ link register save eliminated.
	mov	r0, #0
	bx	lr
	.fnend
	.size	ptp_function_init, .-ptp_function_init
	.align	2
	.type	ptp_function_cleanup, %function
ptp_function_cleanup:
	.fnstart
	@ args = 0, pretend = 0, frame = 0
	@ frame_needed = 0, uses_anonymous_args = 0
	@ link register save eliminated.
	bx	lr
	.fnend
	.size	ptp_function_cleanup, .-ptp_function_cleanup
	.align	2
	.type	audio_source_function_unbind_config, %function
audio_source_function_unbind_config:
	.fnstart
	@ args = 0, pretend = 0, frame = 0
	@ frame_needed = 0, uses_anonymous_args = 0
	@ link register save eliminated.
	ldr	r3, [r0, #4]
	mvn	r2, #0
	str	r2, [r3]
	str	r2, [r3, #4]
	bx	lr
	.fnend
	.size	audio_source_function_unbind_config, .-audio_source_function_unbind_config
	.align	2
	.type	uasp_function_init, %function
uasp_function_init:
	.fnstart
	@ args = 0, pretend = 0, frame = 0
	@ frame_needed = 0, uses_anonymous_args = 0
	@ link register save eliminated.
	mov	r0, #0
	bx	lr
	.fnend
	.size	uasp_function_init, .-uasp_function_init
	.align	2
	.type	uasp_function_cleanup, %function
uasp_function_cleanup:
	.fnstart
	@ args = 0, pretend = 0, frame = 0
	@ frame_needed = 0, uses_anonymous_args = 0
	@ link register save eliminated.
	bx	lr
	.fnend
	.size	uasp_function_cleanup, .-uasp_function_cleanup
	.align	2
	.type	uasp_function_bind_config, %function
uasp_function_bind_config:
	.fnstart
	@ args = 0, pretend = 0, frame = 0
	@ frame_needed = 0, uses_anonymous_args = 0
	@ link register save eliminated.
	mvn	r0, #18
	bx	lr
	.fnend
	.size	uasp_function_bind_config, .-uasp_function_bind_config
	.align	2
	.type	android_unbind_config, %function
android_unbind_config:
	.fnstart
	@ args = 0, pretend = 0, frame = 0
	@ frame_needed = 0, uses_anonymous_args = 0
	ldr	r1, .L255
	strd	r4, [sp, #-16]!
	.save {r4, r5, r6, lr}
	mov	r5, r0
	str	r6, [sp, #8]
	str	lr, [sp, #12]
	ldr	r0, [r0, #24]
.LPIC27:
	add	r1, pc, r1
	ldr	r3, [r1]
	cmp	r1, r3
	sub	r2, r3, #168
	bne	.L243
	b	.L240
.L254:
	ldr	r3, [r2, #168]
	cmp	r1, r3
	sub	r2, r3, #168
	beq	.L240
.L243:
	ldr	r3, [r3, #-160]
	cmp	r0, r3
	bne	.L254
.L240:
	mov	r6, r5
	ldr	r4, [r6, #112]!
	cmp	r6, r4
	sub	r4, r4, #4
	beq	.L239
.L246:
	ldr	r0, [r4]
	mov	r1, r5
	ldr	r3, [r0, #44]
	cmp	r3, #0
	beq	.L245
	blx	r3
.L245:
	ldr	r4, [r4, #4]
	cmp	r6, r4
	sub	r4, r4, #4
	bne	.L246
.L239:
	ldrd	r4, [sp]
	ldr	r6, [sp, #8]
	add	sp, sp, #12
	ldr	pc, [sp], #4
.L256:
	.align	2
.L255:
	.word	.LANCHOR2-(.LPIC27+8)
	.fnend
	.size	android_unbind_config, .-android_unbind_config
	.align	2
	.type	audio_set_endpoint_complete, %function
audio_set_endpoint_complete:
	.fnstart
	@ args = 0, pretend = 0, frame = 8
	@ frame_needed = 0, uses_anonymous_args = 0
	strd	r4, [sp, #-16]!
	.save {r4, r5, r6, lr}
	mov	r3, #0
	str	r6, [sp, #8]
	str	lr, [sp, #12]
	ldr	r5, [r1, #44]
	.pad #8
	sub	sp, sp, #8
	ldr	r4, [r1, #32]
	str	r3, [sp, #4]
	cmp	r5, r3
	bne	.L257
	ldr	r6, [r4, #264]
	cmp	r6, r3
	beq	.L257
	ldmia	r1, {r1, r2}
	add	r0, sp, #4
	bl	memcpy(PLT)
	ldr	r2, [sp, #4]
	mov	r0, r6
	ldr	r3, [r6, #36]
	ldrb	r1, [r4, #260]	@ zero_extendqisi2
	blx	r3
	str	r5, [r4, #264]
.L257:
	add	sp, sp, #8
	@ sp needed
	ldrd	r4, [sp]
	ldr	r6, [sp, #8]
	add	sp, sp, #12
	ldr	pc, [sp], #4
	.fnend
	.size	audio_set_endpoint_complete, .-audio_set_endpoint_complete
	.align	2
	.type	midi_alloc_ep_req, %function
midi_alloc_ep_req:
	.fnstart
	@ args = 0, pretend = 0, frame = 0
	@ frame_needed = 0, uses_anonymous_args = 0
	strd	r4, [sp, #-16]!
	.save {r4, r5, r6, lr}
	mov	r5, r1
	mov	r1, #32
	str	r6, [sp, #8]
	mov	r6, r0
	str	lr, [sp, #12]
	ldr	r3, [r0, #8]
	ldr	r3, [r3, #8]
	blx	r3
	subs	r4, r0, #0
	beq	.L264
	str	r5, [r4, #4]
	mov	r0, r5
	mov	r1, #32
	bl	__kmalloc(PLT)
	cmp	r0, #0
	mov	r3, r0
	str	r0, [r4]
	beq	.L269
.L264:
	mov	r0, r4
	ldr	r6, [sp, #8]
	ldrd	r4, [sp]
	add	sp, sp, #12
	ldr	pc, [sp], #4
.L269:
	ldr	r2, [r6, #8]
	mov	r1, r4
	mov	r0, r6
	mov	r4, r3
	ldr	r3, [r2, #12]
	blx	r3
	b	.L264
	.fnend
	.size	midi_alloc_ep_req, .-midi_alloc_ep_req
	.align	2
	.type	ncm_function_init, %function
ncm_function_init:
	.fnstart
	@ args = 0, pretend = 0, frame = 0
	@ frame_needed = 0, uses_anonymous_args = 0
	ldr	r3, .L277
.LPIC31:
	ldr	r3, [pc, r3]		@ tls_load_dot_plus_eight
	ldr	r3, [r3, #24]
	cmp	r3, #0
	beq	.L271
	.save {r4, lr}
	str	r4, [sp, #-8]!
	movw	r1, #32976
	mov	r4, r0
	mov	r0, r3
	str	lr, [sp, #4]
	bl	kmem_cache_alloc(PLT)
	cmp	r0, #0
	str	r0, [r4, #4]
	mvneq	r3, #11
	movne	r3, #0
	ldr	r4, [sp]
	add	sp, sp, #4
	mov	r0, r3
	ldr	pc, [sp], #4
.L271:
	mov	r2, #16
	str	r2, [r0, #4]
	mov	r0, r3
	bx	lr
.L278:
	.align	2
.L277:
	.word	kmalloc_caches(GOT_PREL)+(.-(.LPIC31+8))
	.fnend
	.size	ncm_function_init, .-ncm_function_init
	.align	2
	.type	ecm_function_init, %function
ecm_function_init:
	.fnstart
	@ args = 0, pretend = 0, frame = 0
	@ frame_needed = 0, uses_anonymous_args = 0
	ldr	r3, .L286
.LPIC33:
	ldr	r3, [pc, r3]		@ tls_load_dot_plus_eight
	ldr	r3, [r3, #24]
	cmp	r3, #0
	beq	.L280
	.save {r4, lr}
	str	r4, [sp, #-8]!
	movw	r1, #32976
	mov	r4, r0
	mov	r0, r3
	str	lr, [sp, #4]
	bl	kmem_cache_alloc(PLT)
	cmp	r0, #0
	str	r0, [r4, #4]
	mvneq	r3, #11
	movne	r3, #0
	ldr	r4, [sp]
	add	sp, sp, #4
	mov	r0, r3
	ldr	pc, [sp], #4
.L280:
	mov	r2, #16
	str	r2, [r0, #4]
	mov	r0, r3
	bx	lr
.L287:
	.align	2
.L286:
	.word	kmalloc_caches(GOT_PREL)+(.-(.LPIC33+8))
	.fnend
	.size	ecm_function_init, .-ecm_function_init
	.align	2
	.type	rndis_function_init, %function
rndis_function_init:
	.fnstart
	@ args = 0, pretend = 0, frame = 0
	@ frame_needed = 0, uses_anonymous_args = 0
	ldr	r3, .L295
.LPIC35:
	ldr	r3, [pc, r3]		@ tls_load_dot_plus_eight
	ldr	r3, [r3, #36]
	cmp	r3, #0
	beq	.L289
	.save {r4, lr}
	str	r4, [sp, #-8]!
	movw	r1, #32976
	mov	r4, r0
	mov	r0, r3
	str	lr, [sp, #4]
	bl	kmem_cache_alloc(PLT)
	cmp	r0, #0
	str	r0, [r4, #4]
	mvneq	r3, #11
	movne	r3, #0
	ldr	r4, [sp]
	add	sp, sp, #4
	mov	r0, r3
	ldr	pc, [sp], #4
.L289:
	mov	r2, #16
	str	r2, [r0, #4]
	mov	r0, r3
	bx	lr
.L296:
	.align	2
.L295:
	.word	kmalloc_caches(GOT_PREL)+(.-(.LPIC35+8))
	.fnend
	.size	rndis_function_init, .-rndis_function_init
	.align	2
	.type	audio_source_function_init, %function
audio_source_function_init:
	.fnstart
	@ args = 0, pretend = 0, frame = 0
	@ frame_needed = 0, uses_anonymous_args = 0
	ldr	r3, .L305
	.save {r4, lr}
	str	r4, [sp, #-8]!
	mov	r4, r0
	str	lr, [sp, #4]
.LPIC37:
	ldr	r3, [pc, r3]		@ tls_load_dot_plus_eight
	ldr	r0, [r3, #24]
	cmp	r0, #0
	beq	.L300
	movw	r1, #32976
	bl	kmem_cache_alloc(PLT)
	subs	r3, r0, #0
	beq	.L304
.L298:
	mvn	r2, #0
	mov	r0, #0
	str	r2, [r3]
	str	r2, [r3, #4]
	str	r3, [r4, #4]
.L299:
	ldr	r4, [sp]
	add	sp, sp, #4
	ldr	pc, [sp], #4
.L300:
	mov	r3, #16
	b	.L298
.L304:
	mvn	r0, #11
	b	.L299
.L306:
	.align	2
.L305:
	.word	kmalloc_caches(GOT_PREL)+(.-(.LPIC37+8))
	.fnend
	.size	audio_source_function_init, .-audio_source_function_init
	.align	2
	.type	midi_function_init, %function
midi_function_init:
	.fnstart
	@ args = 0, pretend = 0, frame = 0
	@ frame_needed = 0, uses_anonymous_args = 0
	ldr	r3, .L314
	.save {r4, lr}
	str	r4, [sp, #-8]!
	str	lr, [sp, #4]
.LPIC39:
	ldr	r3, [pc, r3]		@ tls_load_dot_plus_eight
	ldr	r3, [r3, #24]
	cmp	r3, #0
	beq	.L308
	mov	r4, r0
	movw	r1, #32976
	mov	r0, r3
	bl	kmem_cache_alloc(PLT)
	cmp	r0, #0
	mov	r3, r0
	str	r0, [r4, #4]
	beq	.L311
.L310:
	mvn	r2, #0
	mov	r0, #0
	str	r2, [r3]
	str	r2, [r3, #4]
.L312:
	ldr	r4, [sp]
	add	sp, sp, #4
	ldr	pc, [sp], #4
.L308:
	mov	r2, #16
	mov	r3, r2
	str	r2, [r0, #4]
	b	.L310
.L311:
	mvn	r0, #11
	b	.L312
.L315:
	.align	2
.L314:
	.word	kmalloc_caches(GOT_PREL)+(.-(.LPIC39+8))
	.fnend
	.size	midi_function_init, .-midi_function_init
	.align	2
	.type	ccid_function_unbind, %function
ccid_function_unbind:
	.fnstart
	@ args = 0, pretend = 0, frame = 0
	@ frame_needed = 0, uses_anonymous_args = 0
	.save {r4, lr}
	str	r4, [sp, #-8]!
	mov	r4, r1
	str	lr, [sp, #4]
	ldr	r3, [r0, #24]
	ldr	r3, [r3]
	ldr	r3, [r3, #20]
	cmp	r3, #2
	bls	.L317
	ldr	r0, [r1, #12]
	bl	kfree(PLT)
.L317:
	ldr	r0, [r4, #8]
	ldr	lr, [sp, #4]
	ldr	r4, [sp]
	add	sp, sp, #8
	b	kfree(PLT)
	.fnend
	.size	ccid_function_unbind, .-ccid_function_unbind
	.align	2
	.type	ghsuart_ctrl_receive, %function
ghsuart_ctrl_receive:
	.fnstart
	@ args = 0, pretend = 0, frame = 0
	@ frame_needed = 0, uses_anonymous_args = 0
	strd	r4, [sp, #-16]!
	.save {r4, r5, r6, lr}
	subs	r5, r0, #0
	str	r6, [sp, #8]
	mov	r6, r1
	str	lr, [sp, #12]
	beq	.L321
	ldr	r3, [r5, #68]
	cmp	r3, #0
	moveq	r4, r3
	beq	.L320
	ldr	r0, [r5, #12]
	blx	r3
	ldr	r3, [r5, #100]
	mov	r4, r0
	add	r3, r3, #1
	str	r3, [r5, #100]
.L320:
	mov	r0, r6
	bl	kfree(PLT)
	ldr	r6, [sp, #8]
	mov	r0, r4
	ldrd	r4, [sp]
	add	sp, sp, #12
	ldr	pc, [sp], #4
.L321:
	mov	r4, r5
	b	.L320
	.fnend
	.size	ghsuart_ctrl_receive, .-ghsuart_ctrl_receive
	.align	2
	.type	charger_unbind, %function
charger_unbind:
	.fnstart
	@ args = 0, pretend = 0, frame = 0
	@ frame_needed = 0, uses_anonymous_args = 0
	strd	r4, [sp, #-16]!
	.save {r4, r5, r6, lr}
	mov	r5, r0
	ldr	r0, [r1, #-4]
	str	r6, [sp, #8]
	mov	r4, r1
	sub	r6, r1, #4
	str	lr, [sp, #12]
	ldr	r3, [r0, #8]
	ldr	r3, [r3, #4]
	blx	r3
	ldr	r3, [r5, #24]
	ldr	r3, [r3]
	ldr	r3, [r3, #20]
	cmp	r3, #4
	bhi	.L328
.L325:
	cmp	r3, #2
	bls	.L326
	ldr	r0, [r4, #12]
	bl	kfree(PLT)
.L326:
	ldr	r0, [r4, #8]
	bl	kfree(PLT)
	ldrd	r4, [sp]
	mov	r0, r6
	ldr	lr, [sp, #12]
	ldr	r6, [sp, #8]
	add	sp, sp, #16
	b	kfree(PLT)
.L328:
	ldr	r0, [r4, #16]
	bl	kfree(PLT)
	ldr	r3, [r5, #24]
	ldr	r3, [r3]
	ldr	r3, [r3, #20]
	b	.L325
	.fnend
	.size	charger_unbind, .-charger_unbind
	.align	2
	.type	midi_function_cleanup, %function
midi_function_cleanup:
	.fnstart
	@ args = 0, pretend = 0, frame = 0
	@ frame_needed = 0, uses_anonymous_args = 0
	@ link register save eliminated.
	ldr	r0, [r0, #4]
	b	kfree(PLT)
	.fnend
	.size	midi_function_cleanup, .-midi_function_cleanup
	.align	2
	.type	audio_source_function_cleanup, %function
audio_source_function_cleanup:
	.fnstart
	@ args = 0, pretend = 0, frame = 0
	@ frame_needed = 0, uses_anonymous_args = 0
	@ link register save eliminated.
	ldr	r0, [r0, #4]
	b	kfree(PLT)
	.fnend
	.size	audio_source_function_cleanup, .-audio_source_function_cleanup
	.align	2
	.type	mass_storage_function_cleanup, %function
mass_storage_function_cleanup:
	.fnstart
	@ args = 0, pretend = 0, frame = 0
	@ frame_needed = 0, uses_anonymous_args = 0
	.save {r4, lr}
	str	r4, [sp, #-8]!
	mov	r4, r0
	str	lr, [sp, #4]
	ldr	r0, [r0, #4]
	bl	kfree(PLT)
	mov	r3, #0
	str	r3, [r4, #4]
	ldr	r4, [sp]
	add	sp, sp, #4
	ldr	pc, [sp], #4
	.fnend
	.size	mass_storage_function_cleanup, .-mass_storage_function_cleanup
	.align	2
	.type	ncm_function_cleanup, %function
ncm_function_cleanup:
	.fnstart
	@ args = 0, pretend = 0, frame = 0
	@ frame_needed = 0, uses_anonymous_args = 0
	.save {r4, lr}
	str	r4, [sp, #-8]!
	mov	r4, r0
	str	lr, [sp, #4]
	ldr	r0, [r0, #4]
	bl	kfree(PLT)
	mov	r3, #0
	str	r3, [r4, #4]
	ldr	r4, [sp]
	add	sp, sp, #4
	ldr	pc, [sp], #4
	.fnend
	.size	ncm_function_cleanup, .-ncm_function_cleanup
	.align	2
	.type	ecm_function_cleanup, %function
ecm_function_cleanup:
	.fnstart
	@ args = 0, pretend = 0, frame = 0
	@ frame_needed = 0, uses_anonymous_args = 0
	.save {r4, lr}
	str	r4, [sp, #-8]!
	mov	r4, r0
	str	lr, [sp, #4]
	ldr	r0, [r0, #4]
	bl	kfree(PLT)
	mov	r3, #0
	str	r3, [r4, #4]
	ldr	r4, [sp]
	add	sp, sp, #4
	ldr	pc, [sp], #4
	.fnend
	.size	ecm_function_cleanup, .-ecm_function_cleanup
	.align	2
	.type	rndis_function_cleanup, %function
rndis_function_cleanup:
	.fnstart
	@ args = 0, pretend = 0, frame = 0
	@ frame_needed = 0, uses_anonymous_args = 0
	.save {r4, lr}
	str	r4, [sp, #-8]!
	mov	r4, r0
	str	lr, [sp, #4]
	ldr	r0, [r0, #4]
	bl	kfree(PLT)
	mov	r3, #0
	str	r3, [r4, #4]
	ldr	r4, [sp]
	add	sp, sp, #4
	ldr	pc, [sp], #4
	.fnend
	.size	rndis_function_cleanup, .-rndis_function_cleanup
	.align	2
	.type	gps_function_cleanup, %function
gps_function_cleanup:
	.fnstart
	@ args = 0, pretend = 0, frame = 0
	@ frame_needed = 0, uses_anonymous_args = 0
	@ link register save eliminated.
	ldr	r3, .L340
.LPIC40:
	add	r3, pc, r3
	ldr	r0, [r3, #12]
	b	kfree(PLT)
.L341:
	.align	2
.L340:
	.word	.LANCHOR2-(.LPIC40+8)
	.fnend
	.size	gps_function_cleanup, .-gps_function_cleanup
	.align	2
	.type	rmnet_smd_notify_complete, %function
rmnet_smd_notify_complete:
	.fnstart
	@ args = 0, pretend = 0, frame = 0
	@ frame_needed = 0, uses_anonymous_args = 0
	strd	r4, [sp, #-24]!
	.save {r4, r5, r6, r7, r8, lr}
	strd	r6, [sp, #8]
	str	r8, [sp, #16]
	str	lr, [sp, #20]
	ldr	r2, [r1, #44]
	ldr	r5, [r1, #32]
	cmn	r2, #104
	ldr	r7, [r5, #76]
	beq	.L344
	cmp	r2, #0
	mov	r6, r0
	mov	r4, r1
	beq	.L345
	cmn	r2, #108
	beq	.L344
	ldr	r0, [r7]
	ldr	r1, .L367
	add	r0, r0, #32
.LPIC41:
	add	r1, pc, r1
	bl	dev_err(PLT)
.L345:
	ldr	r3, [r5, #88]
	cmp	r3, r6
	beq	.L366
.L342:
	ldrd	r4, [sp]
	ldrd	r6, [sp, #8]
	ldr	r8, [sp, #16]
	add	sp, sp, #20
	ldr	pc, [sp], #4
.L344:
	mov	r3, #0
	str	r3, [r5, #164]
	b	.L342
.L366:
	add	r6, r5, #164
#APP
@ 99 "/home/ikke/Workspace/kernel_oneplus_onyx/arch/arm/include/asm/atomic.h" 1
	dmb
@ 0 "" 2
@ 101 "/home/ikke/Workspace/kernel_oneplus_onyx/arch/arm/include/asm/atomic.h" 1
	@ atomic_sub_return
1:	ldrex	r3, [r6]
	sub	r3, r3, #1
	strex	r2, r3, [r6]
	teq	r2, #0
	bne	1b
@ 0 "" 2
@ 111 "/home/ikke/Workspace/kernel_oneplus_onyx/arch/arm/include/asm/atomic.h" 1
	dmb
@ 0 "" 2
	cmp	r3, #0
	beq	.L342
	ldr	r0, [r5, #88]
	mov	r2, #32
	mov	r1, r4
	ldr	r3, [r0, #8]
	ldr	r3, [r3, #16]
	blx	r3
	subs	r2, r0, #0
	beq	.L342
#APP
@ 83 "/home/ikke/Workspace/kernel_oneplus_onyx/arch/arm/include/asm/atomic.h" 1
	@ atomic_sub
1:	ldrex	r3, [r6]
	sub	r3, r3, #1
	strex	r1, r3, [r6]
	teq	r1, #0
	bne	1b
@ 0 "" 2
	ldr	r1, .L367+4
	ldr	r0, [r7]
	ldrd	r4, [sp]
	ldrd	r6, [sp, #8]
	ldr	r8, [sp, #16]
.LPIC42:
	add	r1, pc, r1
	ldr	lr, [sp, #20]
	add	r0, r0, #32
	add	sp, sp, #24
	b	dev_err(PLT)
.L368:
	.align	2
.L367:
	.word	.LC11-(.LPIC41+8)
	.word	.LC12-(.LPIC42+8)
	.fnend
	.size	rmnet_smd_notify_complete, .-rmnet_smd_notify_complete
	.align	2
	.type	rmnet_sdio_notify_complete, %function
rmnet_sdio_notify_complete:
	.fnstart
	@ args = 0, pretend = 0, frame = 0
	@ frame_needed = 0, uses_anonymous_args = 0
	strd	r4, [sp, #-24]!
	.save {r4, r5, r6, r7, r8, lr}
	strd	r6, [sp, #8]
	str	r8, [sp, #16]
	str	lr, [sp, #20]
	ldr	r2, [r1, #44]
	ldr	r4, [r1, #32]
	cmn	r2, #104
	ldr	r7, [r4, #76]
	beq	.L371
	cmp	r2, #0
	mov	r5, r1
	beq	.L372
	cmn	r2, #108
	beq	.L371
	ldr	r0, [r7]
	ldr	r1, .L394
	add	r0, r0, #32
.LPIC43:
	add	r1, pc, r1
	bl	dev_err(PLT)
.L372:
	ldr	r3, [r4, #312]
	tst	r3, #2
	beq	.L369
	add	r6, r4, #188
#APP
@ 99 "/home/ikke/Workspace/kernel_oneplus_onyx/arch/arm/include/asm/atomic.h" 1
	dmb
@ 0 "" 2
@ 101 "/home/ikke/Workspace/kernel_oneplus_onyx/arch/arm/include/asm/atomic.h" 1
	@ atomic_sub_return
1:	ldrex	r3, [r6]
	sub	r3, r3, #1
	strex	r2, r3, [r6]
	teq	r2, #0
	bne	1b
@ 0 "" 2
@ 111 "/home/ikke/Workspace/kernel_oneplus_onyx/arch/arm/include/asm/atomic.h" 1
	dmb
@ 0 "" 2
	cmp	r3, #0
	bne	.L393
.L369:
	ldrd	r4, [sp]
	ldrd	r6, [sp, #8]
	ldr	r8, [sp, #16]
	add	sp, sp, #20
	ldr	pc, [sp], #4
.L371:
	mov	r3, #0
	str	r3, [r4, #188]
	b	.L369
.L393:
	ldr	r0, [r4, #88]
	mov	r2, #32
	mov	r1, r5
	ldr	r3, [r0, #8]
	ldr	r3, [r3, #16]
	blx	r3
	subs	r2, r0, #0
	beq	.L369
#APP
@ 83 "/home/ikke/Workspace/kernel_oneplus_onyx/arch/arm/include/asm/atomic.h" 1
	@ atomic_sub
1:	ldrex	r3, [r6]
	sub	r3, r3, #1
	strex	r1, r3, [r6]
	teq	r1, #0
	bne	1b
@ 0 "" 2
	ldr	r1, .L394+4
	ldr	r0, [r7]
	ldrd	r4, [sp]
	ldrd	r6, [sp, #8]
	ldr	r8, [sp, #16]
.LPIC44:
	add	r1, pc, r1
	ldr	lr, [sp, #20]
	add	r0, r0, #32
	add	sp, sp, #24
	b	dev_err(PLT)
.L395:
	.align	2
.L394:
	.word	.LC13-(.LPIC43+8)
	.word	.LC14-(.LPIC44+8)
	.fnend
	.size	rmnet_sdio_notify_complete, .-rmnet_sdio_notify_complete
	.align	2
	.type	gser_setup, %function
gser_setup:
	.fnstart
	@ args = 0, pretend = 0, frame = 0
	@ frame_needed = 0, uses_anonymous_args = 0
	strd	r4, [sp, #-24]!
	.save {r4, r5, r6, r7, r8, lr}
	movw	r2, #8482
	mov	r5, r0
	strd	r6, [sp, #8]
	str	r8, [sp, #16]
	str	lr, [sp, #20]
	ldrb	r6, [r1]	@ zero_extendqisi2
	ldr	r4, [r0, #20]
	ldrb	r3, [r1, #1]	@ zero_extendqisi2
	ldrh	lr, [r1, #2]	@ unaligned
	ldrh	ip, [r1, #6]	@ unaligned
	orr	r3, r3, r6, asl #8
	ldr	r6, [r4, #24]
	cmp	r3, r2
	ldr	r4, [r6, #4]
	beq	.L398
	movw	r2, #41249
	cmp	r3, r2
	beq	.L399
	movw	r2, #8480
	cmp	r3, r2
	beq	.L409
.L404:
	mvn	r4, #94
.L407:
	mov	r0, r4
	ldrd	r6, [sp, #8]
	ldrd	r4, [sp]
	ldr	r8, [sp, #16]
	add	sp, sp, #20
	ldr	pc, [sp], #4
.L409:
	cmp	ip, #7
	bne	.L404
	ldr	r2, [r6]
	mov	r7, ip
	ldr	r3, .L410
	ldr	r2, [r2, #4]
.LPIC45:
	add	r3, pc, r3
	str	r0, [r2]
	str	r3, [r4, #28]
	b	.L401
.L399:
	cmp	ip, #7
	ldr	r0, [r4]
	add	r1, r5, #160
	movcc	r7, ip
	movcs	r7, #7
	mov	r2, r7
	bl	memcpy(PLT)
.L401:
	ldrb	r3, [r4, #26]	@ zero_extendqisi2
	str	r7, [r4, #4]
	mov	r1, r4
	mov	r2, #32
	bfc	r3, #1, #1
	strb	r3, [r4, #26]
	ldr	r3, [r6]
	ldr	r0, [r3, #4]
	ldr	r3, [r0, #8]
	ldr	r3, [r3, #16]
	blx	r3
	subs	r4, r0, #0
	bge	.L407
	ldr	r0, [r6]
	mov	r3, r4
	ldr	r1, .L410+4
	ldrb	r2, [r5, #137]	@ zero_extendqisi2
	add	r0, r0, #32
.LPIC47:
	add	r1, pc, r1
	bl	dev_err(PLT)
	b	.L407
.L398:
	ldr	ip, [r0, #132]
	strh	lr, [r0, #168]	@ movhi
	cmp	ip, #0
	moveq	r7, ip
	beq	.L401
	mov	r2, lr
	ldrb	lr, [r0, #137]	@ zero_extendqisi2
	mov	r7, #0
	ldr	r3, .L410+8
	mov	r1, lr, asl #4
.LPIC46:
	add	r3, pc, r3
	sub	r1, r1, lr, asl #2
	add	r3, r3, r1
	ldrb	r1, [r3, #24]	@ zero_extendqisi2
	blx	ip
	b	.L401
.L411:
	.align	2
.L410:
	.word	gser_complete_set_line_coding-(.LPIC45+8)
	.word	.LC15-(.LPIC47+8)
	.word	.LANCHOR2-(.LPIC46+8)
	.fnend
	.size	gser_setup, .-gser_setup
	.align	2
	.type	acm_setup, %function
acm_setup:
	.fnstart
	@ args = 0, pretend = 0, frame = 0
	@ frame_needed = 0, uses_anonymous_args = 0
	strd	r4, [sp, #-24]!
	.save {r4, r5, r6, r7, r8, lr}
	movw	r2, #8482
	mov	r5, r0
	strd	r6, [sp, #8]
	str	r8, [sp, #16]
	str	lr, [sp, #20]
	ldrb	r6, [r1]	@ zero_extendqisi2
	ldr	r4, [r0, #20]
	ldrb	r3, [r1, #1]	@ zero_extendqisi2
	ldrh	lr, [r1, #2]	@ unaligned
	ldrh	ip, [r1, #6]	@ unaligned
	orr	r3, r3, r6, asl #8
	ldr	r6, [r4, #24]
	cmp	r3, r2
	ldr	r4, [r6, #4]
	beq	.L414
	movw	r2, #41249
	cmp	r3, r2
	beq	.L415
	movw	r2, #8480
	cmp	r3, r2
	beq	.L425
.L420:
	mvn	r4, #94
.L423:
	mov	r0, r4
	ldrd	r6, [sp, #8]
	ldrd	r4, [sp]
	ldr	r8, [sp, #16]
	add	sp, sp, #20
	ldr	pc, [sp], #4
.L425:
	cmp	ip, #7
	bne	.L420
	ldr	r2, [r6]
	mov	r7, ip
	ldr	r3, .L426
	ldr	r2, [r2, #4]
.LPIC48:
	add	r3, pc, r3
	str	r0, [r2]
	str	r3, [r4, #28]
	b	.L417
.L415:
	cmp	ip, #7
	ldr	r0, [r4]
	add	r1, r5, #160
	movcc	r7, ip
	movcs	r7, #7
	mov	r2, r7
	bl	memcpy(PLT)
.L417:
	ldrb	r3, [r4, #26]	@ zero_extendqisi2
	str	r7, [r4, #4]
	mov	r1, r4
	mov	r2, #32
	bfc	r3, #1, #1
	strb	r3, [r4, #26]
	ldr	r3, [r6]
	ldr	r0, [r3, #4]
	ldr	r3, [r0, #8]
	ldr	r3, [r3, #16]
	blx	r3
	subs	r4, r0, #0
	bge	.L423
	ldr	r0, [r6]
	mov	r3, r4
	ldr	r1, .L426+4
	ldrb	r2, [r5, #138]	@ zero_extendqisi2
	add	r0, r0, #32
.LPIC50:
	add	r1, pc, r1
	bl	dev_err(PLT)
	b	.L423
.L414:
	ldr	ip, [r0, #132]
	strh	lr, [r0, #168]	@ movhi
	cmp	ip, #0
	moveq	r7, ip
	beq	.L417
	mov	r2, lr
	ldrb	lr, [r0, #138]	@ zero_extendqisi2
	mov	r7, #0
	ldr	r3, .L426+8
	mov	r1, lr, asl #4
.LPIC49:
	add	r3, pc, r3
	sub	r1, r1, lr, asl #2
	add	r3, r3, r1
	ldrb	r1, [r3, #60]	@ zero_extendqisi2
	blx	ip
	b	.L417
.L427:
	.align	2
.L426:
	.word	acm_complete_set_line_coding-(.LPIC48+8)
	.word	.LC16-(.LPIC50+8)
	.word	.LANCHOR2-(.LPIC49+8)
	.fnend
	.size	acm_setup, .-acm_setup
	.align	2
	.type	ecm_setup, %function
ecm_setup:
	.fnstart
	@ args = 0, pretend = 0, frame = 0
	@ frame_needed = 0, uses_anonymous_args = 0
	strd	r4, [sp, #-16]!
	.save {r4, r5, r6, lr}
	movw	r2, #8515
	str	r6, [sp, #8]
	str	lr, [sp, #12]
	ldr	lr, [r0, #20]
	.pad #8
	sub	sp, sp, #8
	ldrb	ip, [r1]	@ zero_extendqisi2
	ldrb	r3, [r1, #1]	@ zero_extendqisi2
	ldrh	r4, [r1, #4]	@ unaligned
	ldr	r5, [lr, #24]
	ldrh	lr, [r1, #2]	@ unaligned
	orr	r3, r3, ip, asl #8
	ldrh	ip, [r1, #6]	@ unaligned
	cmp	r3, r2
	ldr	r3, [r5, #4]
	bne	.L433
	cmp	ip, #0
	beq	.L436
.L433:
	mvn	r6, #94
.L429:
	mov	r0, r6
	add	sp, sp, #8
	@ sp needed
	ldrd	r4, [sp]
	ldr	r6, [sp, #8]
	add	sp, sp, #12
	ldr	pc, [sp], #4
.L436:
	ldrb	r2, [r0, #140]	@ zero_extendqisi2
	cmp	r2, r4
	bne	.L433
	strh	lr, [r0, #90]	@ movhi
	ldrb	r0, [r3, #26]	@ zero_extendqisi2
	mov	r4, r1
	str	ip, [r3, #4]
	mov	r1, r3
	mov	r2, #32
	bfi	r0, ip, #1, #1
	strb	r0, [r3, #26]
	ldr	r3, [r5]
	ldr	r0, [r3, #4]
	ldr	r3, [r0, #8]
	ldr	r3, [r3, #16]
	blx	r3
	subs	r6, r0, #0
	bge	.L429
	ldr	r0, [r5]
	str	r6, [sp]
	ldr	r1, .L437
	ldrb	r2, [r4]	@ zero_extendqisi2
	ldrb	r3, [r4, #1]	@ zero_extendqisi2
	add	r0, r0, #32
.LPIC51:
	add	r1, pc, r1
	bl	dev_err(PLT)
	b	.L429
.L438:
	.align	2
.L437:
	.word	.LC17-(.LPIC51+8)
	.fnend
	.size	ecm_setup, .-ecm_setup
	.align	2
	.type	ncm_setup, %function
ncm_setup:
	.fnstart
	@ args = 0, pretend = 0, frame = 0
	@ frame_needed = 0, uses_anonymous_args = 0
	strd	r4, [sp, #-20]!
	.save {r4, r5, r6, r7, lr}
	mov	r4, r1
	movw	r2, #8586
	strd	r6, [sp, #8]
	str	lr, [sp, #16]
	ldrb	r1, [r1]	@ zero_extendqisi2
	.pad #12
	sub	sp, sp, #12
	ldr	ip, [r0, #20]
	ldrb	r3, [r4, #1]	@ zero_extendqisi2
	ldrh	lr, [r4, #2]	@ unaligned
	ldrh	r7, [r4, #4]	@ unaligned
	ldr	r6, [ip, #24]
	orr	r3, r3, r1, asl #8
	ldrh	r1, [r4, #6]	@ unaligned
	cmp	r3, r2
	ldr	r5, [r6, #4]
	beq	.L441
	ble	.L484
	movw	r2, #41347
	cmp	r3, r2
	beq	.L446
	ble	.L485
	movw	r2, #41349
	cmp	r3, r2
	beq	.L449
	movw	r2, #41353
	cmp	r3, r2
	bne	.L480
	cmp	r1, #1
	movhi	r1, #0
	movls	r1, #1
	cmp	lr, #0
	moveq	ip, r1
	orrne	ip, r1, #1
	cmp	ip, #0
	bne	.L480
	ldrb	r3, [r0, #140]	@ zero_extendqisi2
	cmp	r3, r7
	bne	.L480
	ldrb	r2, [r0, #172]	@ zero_extendqisi2
	mov	r7, #2
	ldr	r3, [r5]
	strb	r2, [r3]
	strb	ip, [r3, #1]
.L451:
	ldrb	r3, [r5, #26]	@ zero_extendqisi2
	str	r7, [r5, #4]
	mov	r1, r5
	mov	r2, #32
	bfc	r3, #1, #1
	strb	r3, [r5, #26]
	ldr	r3, [r6]
	ldr	r0, [r3, #4]
	ldr	r3, [r0, #8]
	ldr	r3, [r3, #16]
	blx	r3
	subs	r5, r0, #0
	bge	.L481
	ldr	r0, [r6]
	str	r5, [sp]
	ldr	r1, .L487
	ldrb	r2, [r4]	@ zero_extendqisi2
	ldrb	r3, [r4, #1]	@ zero_extendqisi2
	add	r0, r0, #32
.LPIC57:
	add	r1, pc, r1
	bl	dev_err(PLT)
	b	.L481
.L484:
	movw	r2, #8580
	cmp	r3, r2
	beq	.L443
	movw	r2, #8582
	cmp	r3, r2
	beq	.L444
	movw	r2, #8515
	cmp	r3, r2
	beq	.L486
.L480:
	mvn	r5, #94
.L481:
	mov	r0, r5
	add	sp, sp, #12
	@ sp needed
	ldrd	r4, [sp]
	ldrd	r6, [sp, #8]
	add	sp, sp, #16
	ldr	pc, [sp], #4
.L444:
	cmp	r1, #4
	cmpeq	lr, #0
	bne	.L480
	ldrb	r3, [r0, #140]	@ zero_extendqisi2
	cmp	r3, r7
	bne	.L480
	ldr	r3, .L487+4
	str	r0, [r5, #32]
	mov	r7, #4
.LPIC53:
	add	r3, pc, r3
	str	r3, [r5, #28]
	b	.L451
.L449:
	cmp	r1, #3
	movhi	r1, #0
	movls	r1, #1
	cmp	lr, #0
	moveq	ip, r1
	orrne	ip, r1, #1
	cmp	ip, #0
	bne	.L480
	ldrb	r3, [r0, #140]	@ zero_extendqisi2
	cmp	r3, r7
	bne	.L480
	ldr	r2, [r0, #104]
	mov	r7, #4
	ldr	r3, [r5]
	mov	r1, r2, lsr #16
	ubfx	r0, r2, #8, #8
	strb	r2, [r3]
	mov	r2, r1, lsr #8
	strb	r0, [r3, #1]
	strb	r1, [r3, #2]
	strb	r2, [r3, #3]
	b	.L451
.L485:
	movw	r2, #41344
	cmp	r3, r2
	bne	.L480
	clz	r3, r1
	mov	r3, r3, lsr #5
	cmp	lr, #0
	orrne	r3, r3, #1
	cmp	r3, #0
	bne	.L480
	ldrb	r3, [r0, #140]	@ zero_extendqisi2
	cmp	r3, r7
	bne	.L480
	cmp	r1, #28
	ldr	r0, [r5]
	movcc	r7, r1
	ldr	r1, .L487+8
	movcs	r7, #28
	mov	r2, r7
.LPIC52:
	add	r1, pc, r1
	bl	memcpy(PLT)
	b	.L451
.L443:
	cmp	r1, #0
	bne	.L480
	ldrb	r3, [r0, #140]	@ zero_extendqisi2
	cmp	r3, r7
	bne	.L480
	cmp	lr, #0
	beq	.L453
	cmp	lr, #1
	bne	.L480
	ldr	r3, .L487+12
	mov	r7, r1
.LPIC56:
	add	r3, pc, r3
	add	r3, r3, #72
	str	r3, [r0, #168]
	b	.L451
.L486:
	cmp	r1, #0
	bne	.L480
	ldrb	r3, [r0, #140]	@ zero_extendqisi2
	cmp	r3, r7
	moveq	r7, r1
	streqh	lr, [r0, #90]	@ movhi
	bne	.L480
	b	.L451
.L446:
	cmp	r1, #1
	movhi	r1, #0
	movls	r1, #1
	cmp	lr, #0
	moveq	ip, r1
	orrne	ip, r1, #1
	cmp	ip, #0
	bne	.L480
	ldrb	r3, [r0, #140]	@ zero_extendqisi2
	cmp	r3, r7
	bne	.L480
	ldr	r3, .L487+16
	mov	r7, #2
	ldr	r2, [r0, #168]
	ldr	r1, [r5]
.LPIC54:
	add	r3, pc, r3
	add	r3, r3, #28
	subs	r3, r2, r3
	strb	ip, [r1, #1]
	movne	r3, #1
	strb	r3, [r1]
	b	.L451
.L441:
	cmp	r1, #0
	bne	.L480
	ldrb	r3, [r0, #140]	@ zero_extendqisi2
	cmp	r3, r7
	bne	.L480
	cmp	lr, #0
	beq	.L455
	cmp	lr, #1
	bne	.L480
	mov	r3, #16777216
	strb	lr, [r0, #172]
.L457:
	ldr	r1, [r0, #168]
	mov	r7, #0
	ldr	r2, [r1, #4]
	bic	r2, r2, #16777216
	str	r2, [r1, #4]
	ldr	r2, [r0, #168]
	ldr	r1, [r2, #4]
	orr	r3, r1, r3
	str	r3, [r2, #4]
	b	.L451
.L455:
	strb	lr, [r0, #172]
	mov	r3, lr
	b	.L457
.L453:
	ldr	r3, .L487+20
	mov	r7, lr
.LPIC55:
	add	r3, pc, r3
	add	r3, r3, #28
	str	r3, [r0, #168]
	b	.L451
.L488:
	.align	2
.L487:
	.word	.LC18-(.LPIC57+8)
	.word	ncm_ep0out_complete-(.LPIC53+8)
	.word	.LANCHOR1-(.LPIC52+8)
	.word	.LANCHOR1-(.LPIC56+8)
	.word	.LANCHOR1-(.LPIC54+8)
	.word	.LANCHOR1-(.LPIC55+8)
	.fnend
	.size	ncm_setup, .-ncm_setup
	.align	2
	.type	rmnet_mux_notify_complete, %function
rmnet_mux_notify_complete:
	.fnstart
	@ args = 0, pretend = 0, frame = 0
	@ frame_needed = 0, uses_anonymous_args = 0
	strd	r4, [sp, #-24]!
	.save {r4, r5, r6, r7, r8, lr}
	strd	r6, [sp, #8]
	str	r8, [sp, #16]
	str	lr, [sp, #20]
	ldr	r2, [r1, #44]
	ldr	r4, [r1, #32]
	cmn	r2, #104
	ldr	r7, [r4, #76]
	beq	.L491
	cmp	r2, #0
	mov	r5, r1
	beq	.L492
	cmn	r2, #108
	beq	.L491
	ldr	r0, [r7]
	ldr	r1, .L511
	add	r0, r0, #32
.LPIC58:
	add	r1, pc, r1
	bl	dev_err(PLT)
.L492:
	add	r6, r4, #364
#APP
@ 99 "/home/ikke/Workspace/kernel_oneplus_onyx/arch/arm/include/asm/atomic.h" 1
	dmb
@ 0 "" 2
@ 101 "/home/ikke/Workspace/kernel_oneplus_onyx/arch/arm/include/asm/atomic.h" 1
	@ atomic_sub_return
1:	ldrex	r3, [r6]
	sub	r3, r3, #1
	strex	r2, r3, [r6]
	teq	r2, #0
	bne	1b
@ 0 "" 2
@ 111 "/home/ikke/Workspace/kernel_oneplus_onyx/arch/arm/include/asm/atomic.h" 1
	dmb
@ 0 "" 2
	cmp	r3, #0
	bne	.L510
.L489:
	ldrd	r4, [sp]
	ldrd	r6, [sp, #8]
	ldr	r8, [sp, #16]
	add	sp, sp, #20
	ldr	pc, [sp], #4
.L510:
	ldr	r0, [r4, #88]
	mov	r2, #32
	mov	r1, r5
	ldr	r3, [r0, #8]
	ldr	r3, [r3, #16]
	blx	r3
	subs	r2, r0, #0
	beq	.L489
#APP
@ 83 "/home/ikke/Workspace/kernel_oneplus_onyx/arch/arm/include/asm/atomic.h" 1
	@ atomic_sub
1:	ldrex	r3, [r6]
	sub	r3, r3, #1
	strex	r1, r3, [r6]
	teq	r1, #0
	bne	1b
@ 0 "" 2
	ldr	r1, .L511+4
	ldr	r0, [r7]
	ldrd	r4, [sp]
	ldrd	r6, [sp, #8]
	ldr	r8, [sp, #16]
.LPIC59:
	add	r1, pc, r1
	ldr	lr, [sp, #20]
	add	r0, r0, #32
	add	sp, sp, #24
	b	dev_err(PLT)
.L491:
	mov	r3, #0
	str	r3, [r4, #364]
	b	.L489
.L512:
	.align	2
.L511:
	.word	.LC19-(.LPIC58+8)
	.word	.LC14-(.LPIC59+8)
	.fnend
	.size	rmnet_mux_notify_complete, .-rmnet_mux_notify_complete
	.align	2
	.type	composite_suspend, %function
composite_suspend:
	.fnstart
	@ args = 0, pretend = 0, frame = 0
	@ frame_needed = 0, uses_anonymous_args = 0
	strd	r4, [sp, #-16]!
	.save {r4, r5, r6, lr}
	mov	r5, r0
	add	r0, r0, #32
	str	r6, [sp, #8]
	str	lr, [sp, #12]
	bl	dev_get_drvdata(PLT)
	ldr	r3, [r0, #12]
	mov	r6, r0
	cmp	r3, #0
	beq	.L517
	ldr	r4, [r3, #36]!
	cmp	r3, r4
	sub	r4, r4, #64
	beq	.L517
.L519:
	ldr	r2, [r4, #48]
	mov	r0, r4
	cmp	r2, #0
	beq	.L518
	blx	r2
	ldr	r3, [r6, #12]
	add	r3, r3, #36
.L518:
	ldr	r4, [r4, #64]
	cmp	r3, r4
	sub	r4, r4, #64
	bne	.L519
.L517:
	ldr	r3, .L526
.LPIC60:
	add	r3, pc, r3
	ldr	r3, [r3, #88]
	ldr	r3, [r3, #36]
	cmp	r3, #0
	beq	.L516
	mov	r0, r6
	blx	r3
.L516:
	ldrb	r3, [r6, #16]	@ zero_extendqisi2
	orr	r3, r3, #1
	strb	r3, [r6, #16]
	ldr	r3, [r5]
	ldr	r3, [r3, #16]
	cmp	r3, #0
	beq	.L513
	mov	r0, r5
	ldr	r6, [sp, #8]
	mov	r1, #2
	ldrd	r4, [sp]
	ldr	lr, [sp, #12]
	add	sp, sp, #16
	bx	r3
.L513:
	ldrd	r4, [sp]
	ldr	r6, [sp, #8]
	add	sp, sp, #12
	ldr	pc, [sp], #4
.L527:
	.align	2
.L526:
	.word	.LANCHOR2-(.LPIC60+8)
	.fnend
	.size	composite_suspend, .-composite_suspend
	.align	2
	.type	composite_resume, %function
composite_resume:
	.fnstart
	@ args = 0, pretend = 0, frame = 0
	@ frame_needed = 0, uses_anonymous_args = 0
	strd	r4, [sp, #-16]!
	.save {r4, r5, r6, lr}
	str	r6, [sp, #8]
	mov	r6, r0
	add	r0, r0, #32
	str	lr, [sp, #12]
	bl	dev_get_drvdata(PLT)
	ldr	r3, .L549
	mov	r5, r0
.LPIC61:
	add	r3, pc, r3
	ldr	r3, [r3, #88]
	ldr	r3, [r3, #40]
	cmp	r3, #0
	beq	.L529
	blx	r3
.L529:
	ldr	r1, [r5, #12]
	cmp	r1, #0
	beq	.L531
	mov	r2, r1
	ldr	r4, [r2, #36]!
	cmp	r2, r4
	sub	r4, r4, #64
	beq	.L532
.L534:
	ldr	r3, [r4, #52]
	mov	r0, r4
	cmp	r3, #0
	beq	.L533
	blx	r3
	ldr	r1, [r5, #12]
	add	r2, r1, #36
.L533:
	ldr	r4, [r4, #64]
	cmp	r2, r4
	sub	r4, r4, #64
	bne	.L534
.L532:
	ldrb	r1, [r1, #23]	@ zero_extendqisi2
	cmp	r1, #0
	ldrne	r3, [r5, #64]
	moveq	r1, #500
	mulne	r1, r3, r1
	ldr	r3, [r6]
	ldr	r3, [r3, #16]
	cmp	r3, #0
	beq	.L531
	mov	r0, r6
	blx	r3
.L531:
	ldrb	r3, [r5, #16]	@ zero_extendqisi2
	bfc	r3, #0, #1
	strb	r3, [r5, #16]
	ldrd	r4, [sp]
	ldr	r6, [sp, #8]
	add	sp, sp, #12
	ldr	pc, [sp], #4
.L550:
	.align	2
.L549:
	.word	.LANCHOR2-(.LPIC61+8)
	.fnend
	.size	composite_resume, .-composite_resume
	.align	2
	.type	diag_read_complete, %function
diag_read_complete:
	.fnstart
	@ args = 0, pretend = 0, frame = 0
	@ frame_needed = 0, uses_anonymous_args = 0
	strd	r4, [sp, #-24]!
	.save {r4, r5, r6, r7, r8, lr}
	mov	r5, r1
	strd	r6, [sp, #8]
	str	lr, [sp, #20]
	str	r8, [sp, #16]
	ldr	r3, [r1, #48]
	ldr	r6, [r1, #32]
	ldr	r4, [r0]
	str	r3, [r6, #8]
	ldr	r3, [r1, #44]
	add	r7, r4, #100
	mov	r0, r7
	str	r3, [r6, #12]
	bl	_raw_spin_lock_irqsave(PLT)
	ldr	r3, [r4, #88]
	add	r2, r5, #36
	add	ip, r4, #84
	mov	r1, r0
	mov	r0, r7
	str	r2, [r4, #88]
	str	ip, [r5, #36]
	str	r3, [r5, #40]
	str	r2, [r3]
	bl	_raw_spin_unlock_irqrestore(PLT)
	ldr	r3, [r4, #124]
	ldr	r2, [r4, #116]
	add	r3, r3, #1
	cmp	r2, #0
	str	r3, [r4, #124]
	beq	.L551
	ldr	r3, [r2, #12]
	cmp	r3, #0
	beq	.L551
	ldr	r0, [r2, #16]
	mov	r1, #3
	mov	r2, r6
	ldrd	r4, [sp]
	ldrd	r6, [sp, #8]
	ldr	r8, [sp, #16]
	ldr	lr, [sp, #20]
	add	sp, sp, #24
	bx	r3	@ indirect register sibling call
.L551:
	ldrd	r4, [sp]
	ldrd	r6, [sp, #8]
	ldr	r8, [sp, #16]
	add	sp, sp, #20
	ldr	pc, [sp], #4
	.fnend
	.size	diag_read_complete, .-diag_read_complete
	.align	2
	.type	diag_write_complete, %function
diag_write_complete:
	.fnstart
	@ args = 0, pretend = 0, frame = 0
	@ frame_needed = 0, uses_anonymous_args = 0
	strd	r4, [sp, #-24]!
	.save {r4, r5, r6, r7, r8, lr}
	mov	r4, r1
	strd	r6, [sp, #8]
	str	r8, [sp, #16]
	str	lr, [sp, #20]
	ldr	r5, [r0]
	ldr	r7, [r1, #32]
	ldr	ip, [r5, #128]
	sub	r3, ip, #1
	str	r3, [r5, #128]
	ldr	r3, [r1, #44]
	cmp	r3, #0
	bne	.L561
	ldrh	r3, [r0, #20]
	ldr	r2, [r1, #4]
	cmp	r2, r3
	bcc	.L561
	udiv	r0, r2, r3
	mls	r3, r3, r0, r2
	cmp	r3, #0
	beq	.L574
.L561:
	add	r6, r5, #100
	mov	r0, r6
	bl	_raw_spin_lock_irqsave(PLT)
	ldr	r2, [r5, #96]
	add	r3, r5, #92
	mov	r1, r0
	add	r0, r4, #36
	str	r0, [r5, #96]
	str	r3, [r4, #36]
	str	r2, [r4, #40]
	str	r0, [r2]
	ldr	r3, [r4, #4]
	cmp	r3, #0
	bne	.L575
.L562:
	mov	r0, r6
	bl	_raw_spin_unlock_irqrestore(PLT)
	ldr	r3, [r5, #116]
	cmp	r3, #0
	beq	.L560
	ldr	ip, [r3, #12]
	cmp	ip, #0
	beq	.L560
	mov	r2, r7
	ldrd	r4, [sp]
	mov	r1, #2
	ldrd	r6, [sp, #8]
	ldr	r8, [sp, #16]
	ldr	lr, [sp, #20]
	add	sp, sp, #24
	ldr	r0, [r3, #16]
	bx	ip	@ indirect register sibling call
.L575:
	ldr	r3, [r4, #48]
	str	r3, [r7, #8]
	ldr	r3, [r4, #44]
	str	r3, [r7, #12]
	b	.L562
.L560:
	ldrd	r4, [sp]
	ldrd	r6, [sp, #8]
	ldr	r8, [sp, #16]
	add	sp, sp, #20
	ldr	pc, [sp], #4
.L574:
	str	ip, [r5, #128]
	ldr	r0, [r1, #48]
	mov	r2, #32
	str	r3, [r1, #4]
	str	r0, [r7, #8]
	ldr	r3, [r1, #44]
	str	r3, [r7, #12]
	ldr	r0, [r5, #80]
	ldrd	r6, [sp, #8]
	ldrd	r4, [sp]
	ldr	r8, [sp, #16]
	ldr	r3, [r0, #8]
	ldr	lr, [sp, #20]
	add	sp, sp, #24
	ldr	r3, [r3, #16]
	bx	r3
	.fnend
	.size	diag_write_complete, .-diag_write_complete
	.align	2
	.type	diag_function_disable, %function
diag_function_disable:
	.fnstart
	@ args = 0, pretend = 0, frame = 0
	@ frame_needed = 0, uses_anonymous_args = 0
	strd	r4, [sp, #-16]!
	.save {r4, r5, r6, lr}
	add	r5, r0, #100
	mov	r4, r0
	str	r6, [sp, #8]
	mov	r0, r5
	mov	r6, #0
	str	lr, [sp, #12]
	bl	_raw_spin_lock_irqsave(PLT)
	mov	r1, r0
	str	r6, [r4, #104]
	mov	r0, r5
	bl	_raw_spin_unlock_irqrestore(PLT)
	ldr	r3, [r4, #116]
	cmp	r3, r6
	beq	.L577
	ldr	ip, [r3, #12]
	cmp	ip, r6
	beq	.L577
	ldr	r0, [r3, #16]
	mov	r2, r6
	mov	r1, #1
	blx	ip
.L577:
	ldr	r0, [r4, #80]
	mov	r5, #0
	ldr	r3, [r0, #8]
	ldr	r3, [r3, #4]
	blx	r3
	ldr	r3, [r4, #80]
	str	r5, [r3]
	ldr	r0, [r4, #76]
	ldr	r3, [r0, #8]
	ldr	r3, [r3, #4]
	blx	r3
	ldr	r3, [r4, #76]
	str	r5, [r3]
	ldr	r3, [r4, #116]
	cmp	r3, r5
	strne	r5, [r3, #20]
	ldrd	r4, [sp]
	ldr	r6, [sp, #8]
	add	sp, sp, #12
	ldr	pc, [sp], #4
	.fnend
	.size	diag_function_disable, .-diag_function_disable
	.align	2
	.type	qdss_ctrl_read_complete, %function
qdss_ctrl_read_complete:
	.fnstart
	@ args = 0, pretend = 0, frame = 0
	@ frame_needed = 0, uses_anonymous_args = 0
	strd	r4, [sp, #-24]!
	.save {r4, r5, r6, r7, r8, lr}
	mov	r4, r1
	strd	r6, [sp, #8]
	str	lr, [sp, #20]
	str	r8, [sp, #16]
	ldr	r3, [r1, #48]
	ldr	r6, [r1, #32]
	ldr	r5, [r0]
	str	r3, [r6, #8]
	ldr	r3, [r1, #44]
	add	r7, r5, #180
	mov	r0, r7
	str	r3, [r6, #12]
	bl	_raw_spin_lock_irqsave(PLT)
	ldr	r3, [r5, #136]
	add	ip, r5, #132
	add	r2, r4, #36
	mov	r1, r0
	mov	r0, r7
	str	r2, [r5, #136]
	str	ip, [r4, #36]
	str	r3, [r4, #40]
	str	r2, [r3]
	bl	_raw_spin_unlock_irqrestore(PLT)
	ldr	ip, [r5, #116]
	cmp	ip, #0
	beq	.L589
	ldr	r0, [r5, #120]
	mov	r2, r6
	mov	r1, #2
	ldrd	r4, [sp]
	mov	r3, #0
	ldrd	r6, [sp, #8]
	ldr	r8, [sp, #16]
	ldr	lr, [sp, #20]
	add	sp, sp, #24
	bx	ip	@ indirect register sibling call
.L589:
	ldrd	r4, [sp]
	ldrd	r6, [sp, #8]
	ldr	r8, [sp, #16]
	add	sp, sp, #20
	ldr	pc, [sp], #4
	.fnend
	.size	qdss_ctrl_read_complete, .-qdss_ctrl_read_complete
	.align	2
	.type	qdss_ctrl_write_complete, %function
qdss_ctrl_write_complete:
	.fnstart
	@ args = 0, pretend = 0, frame = 0
	@ frame_needed = 0, uses_anonymous_args = 0
	strd	r4, [sp, #-24]!
	.save {r4, r5, r6, r7, r8, lr}
	mov	r4, r1
	strd	r6, [sp, #8]
	str	r8, [sp, #16]
	str	lr, [sp, #20]
	ldr	r3, [r1, #44]
	ldr	r5, [r0]
	ldr	r6, [r1, #32]
	cmp	r3, #0
	bne	.L593
	ldrh	r3, [r0, #20]
	ldr	r2, [r1, #4]
	cmp	r2, r3
	bcc	.L593
	udiv	r0, r2, r3
	mls	r3, r3, r0, r2
	cmp	r3, #0
	beq	.L600
.L593:
	add	r7, r5, #180
	mov	r0, r7
	bl	_raw_spin_lock_irqsave(PLT)
	ldr	r2, [r5, #144]
	add	r3, r5, #140
	mov	r1, r0
	add	r0, r4, #36
	str	r0, [r5, #144]
	str	r3, [r4, #36]
	str	r2, [r4, #40]
	str	r0, [r2]
	ldr	r3, [r4, #4]
	cmp	r3, #0
	bne	.L601
.L594:
	mov	r0, r7
	bl	_raw_spin_unlock_irqrestore(PLT)
	ldr	ip, [r5, #116]
	cmp	ip, #0
	beq	.L592
	ldr	r0, [r5, #120]
	mov	r2, r6
	mov	r1, #4
	ldrd	r4, [sp]
	mov	r3, #0
	ldrd	r6, [sp, #8]
	ldr	r8, [sp, #16]
	ldr	lr, [sp, #20]
	add	sp, sp, #24
	bx	ip	@ indirect register sibling call
.L601:
	ldr	r3, [r4, #48]
	str	r3, [r6, #8]
	ldr	r3, [r4, #44]
	str	r3, [r6, #12]
	b	.L594
.L592:
	ldrd	r4, [sp]
	ldrd	r6, [sp, #8]
	ldr	r8, [sp, #16]
	add	sp, sp, #20
	ldr	pc, [sp], #4
.L600:
	ldr	r0, [r1, #48]
	str	r3, [r1, #4]
	mov	r2, #32
	str	r0, [r6, #8]
	ldr	r3, [r1, #44]
	str	r3, [r6, #12]
	ldr	r0, [r5, #96]
	ldrd	r6, [sp, #8]
	ldrd	r4, [sp]
	ldr	r8, [sp, #16]
	ldr	r3, [r0, #8]
	ldr	lr, [sp, #20]
	add	sp, sp, #24
	ldr	r3, [r3, #16]
	bx	r3
	.fnend
	.size	qdss_ctrl_write_complete, .-qdss_ctrl_write_complete
	.align	2
	.type	rmnet_smd_debug_reset_stats, %function
rmnet_smd_debug_reset_stats:
	.fnstart
	@ args = 0, pretend = 0, frame = 0
	@ frame_needed = 0, uses_anonymous_args = 0
	strd	r4, [sp, #-16]!
	.save {r4, r5, r6, lr}
	str	r6, [sp, #8]
	mov	r6, r2
	str	lr, [sp, #12]
	ldr	r4, [r0, #124]
	add	r5, r4, #156
	mov	r0, r5
	bl	_raw_spin_lock_irqsave(PLT)
	mov	r3, #0
	mov	r1, r0
	mov	r0, r5
	str	r3, [r4, #416]
	str	r3, [r4, #420]
	str	r3, [r4, #424]
	str	r3, [r4, #428]
	str	r3, [r4, #432]
	str	r3, [r4, #436]
	str	r3, [r4, #440]
	str	r3, [r4, #444]
	bl	_raw_spin_unlock_irqrestore(PLT)
	ldrd	r4, [sp]
	mov	r0, r6
	ldr	r6, [sp, #8]
	add	sp, sp, #12
	ldr	pc, [sp], #4
	.fnend
	.size	rmnet_smd_debug_reset_stats, .-rmnet_smd_debug_reset_stats
	.align	2
	.type	rmnet_smd_start_rx, %function
rmnet_smd_start_rx:
	.fnstart
	@ args = 0, pretend = 0, frame = 8
	@ frame_needed = 0, uses_anonymous_args = 0
	strd	r4, [sp, #-36]!
	.save {r4, r5, r6, r7, r8, r9, r10, fp, lr}
	mov	r5, r0
	strd	r6, [sp, #8]
	add	r6, r0, #156
	add	r7, r0, #140
	strd	r8, [sp, #16]
	mov	r9, #256
	mov	r8, #512
	strd	r10, [sp, #24]
	str	lr, [sp, #32]
	ldr	r3, [r0, #76]
	.pad #12
	sub	sp, sp, #12
	mov	r0, r6
	str	r3, [sp, #4]
	bl	_raw_spin_lock_irqsave(PLT)
	mov	fp, r0
	b	.L605
.L607:
	ldrd	r2, [r4]
	str	r3, [r2, #4]
	str	r2, [r3]
	str	r9, [r4]
	str	r8, [r4, #4]
	bl	_raw_spin_unlock_irqrestore(PLT)
	ldr	r0, [r5, #80]
	sub	r1, r4, #36
	mov	r2, #32
	ldr	r3, [r0, #8]
	ldr	r3, [r3, #16]
	blx	r3
	mov	r10, r0
	mov	r0, r6
	bl	_raw_spin_lock_irqsave(PLT)
	cmp	r10, #0
	mov	fp, r0
	bne	.L611
.L605:
	ldr	r4, [r5, #140]
	mov	r1, fp
	mov	r0, r6
	cmp	r7, r4
	bne	.L607
.L606:
	mov	r0, r6
	mov	r1, fp
	add	sp, sp, #12
	@ sp needed
	ldrd	r4, [sp]
	ldrd	r6, [sp, #8]
	ldrd	r8, [sp, #16]
	ldrd	r10, [sp, #24]
	ldr	lr, [sp, #32]
	add	sp, sp, #36
	b	_raw_spin_unlock_irqrestore(PLT)
.L611:
	ldr	r3, [sp, #4]
	mov	r2, r10
	ldr	r1, .L612
	ldr	r0, [r3]
.LPIC62:
	add	r1, pc, r1
	add	r0, r0, #32
	bl	dev_err(PLT)
	ldr	r3, [r5, #144]
	str	r4, [r5, #144]
	str	r7, [r4]
	str	r3, [r4, #4]
	str	r4, [r3]
	b	.L606
.L613:
	.align	2
.L612:
	.word	.LC20-(.LPIC62+8)
	.fnend
	.size	rmnet_smd_start_rx, .-rmnet_smd_start_rx
	.align	2
	.type	rmnet_sdio_control_rx_work, %function
rmnet_sdio_control_rx_work:
	.fnstart
	@ args = 0, pretend = 0, frame = 0
	@ frame_needed = 0, uses_anonymous_args = 0
	strd	r4, [sp, #-36]!
	.save {r4, r5, r6, r7, r8, r9, r10, fp, lr}
	mov	r5, r0
	strd	r8, [sp, #16]
	sub	r8, r0, #112
	mov	r9, #512
	strd	r6, [sp, #8]
	sub	r6, r0, #32
	strd	r10, [sp, #24]
	mov	r10, #256
	str	lr, [sp, #32]
	.pad #4
	sub	sp, sp, #4
	ldr	fp, [r0, #-136]
	b	.L617
.L620:
	ldrd	r2, [r4]
	str	r3, [r2, #4]
	str	r2, [r3]
	str	r10, [r4]
	str	r9, [r4, #4]
	ldr	r3, [r5, #-104]
	sub	r3, r3, #1
	str	r3, [r5, #-104]
	bl	_raw_spin_unlock_irqrestore(PLT)
	ldr	r3, [r4, #-4]
	cmn	r3, #19
	bne	.L619
	ldr	r3, [r5, #148]
	add	r3, r3, #1
	str	r3, [r5, #148]
	ldr	r0, [r4, #-8]
	bl	kfree(PLT)
	mov	r0, r7
	bl	kfree(PLT)
.L617:
	mov	r0, r6
	bl	_raw_spin_lock_irqsave(PLT)
	ldr	r4, [r5, #-112]
	mov	r3, r0
	mov	r0, r6
	mov	r1, r3
	cmp	r4, r8
	sub	r7, r4, #8
	bne	.L620
	mov	r0, r6
	mov	r1, r3
	add	sp, sp, #4
	@ sp needed
	ldrd	r4, [sp]
	ldrd	r6, [sp, #8]
	ldrd	r8, [sp, #16]
	ldrd	r10, [sp, #24]
	ldr	lr, [sp, #32]
	add	sp, sp, #36
	b	_raw_spin_unlock_irqrestore(PLT)
.L619:
	ldr	r0, [fp]
	ldr	r1, .L621
	add	r0, r0, #32
.LPIC63:
	add	r1, pc, r1
	add	sp, sp, #4
	@ sp needed
	ldrd	r4, [sp]
	ldrd	r6, [sp, #8]
	ldrd	r8, [sp, #16]
	ldrd	r10, [sp, #24]
	ldr	lr, [sp, #32]
	add	sp, sp, #36
	b	dev_err(PLT)
.L622:
	.align	2
.L621:
	.word	.LC21-(.LPIC63+8)
	.fnend
	.size	rmnet_sdio_control_rx_work, .-rmnet_sdio_control_rx_work
	.align	2
	.global	usb_rmnet_mux_ctrl_release
	.type	usb_rmnet_mux_ctrl_release, %function
usb_rmnet_mux_ctrl_release:
	.fnstart
	@ args = 0, pretend = 0, frame = 0
	@ frame_needed = 0, uses_anonymous_args = 0
	strd	r4, [sp, #-24]!
	.save {r4, r5, r6, r7, r8, lr}
	mov	r5, r1
	mov	r4, #0
	strd	r6, [sp, #8]
	str	r8, [sp, #16]
	str	lr, [sp, #20]
	ldr	r6, [r1, #124]
	add	r7, r6, #356
	mov	r0, r7
	bl	_raw_spin_lock_irqsave(PLT)
	mov	r1, r0
	str	r4, [r6, #344]
	mov	r0, r7
	str	r4, [r5, #124]
	bl	_raw_spin_unlock_irqrestore(PLT)
	ldrd	r6, [sp, #8]
	mov	r0, r4
	ldrd	r4, [sp]
	ldr	r8, [sp, #16]
	add	sp, sp, #20
	ldr	pc, [sp], #4
	.fnend
	.size	usb_rmnet_mux_ctrl_release, .-usb_rmnet_mux_ctrl_release
	.align	2
	.type	audio_pcm_close, %function
audio_pcm_close:
	.fnstart
	@ args = 0, pretend = 0, frame = 0
	@ frame_needed = 0, uses_anonymous_args = 0
	strd	r4, [sp, #-16]!
	.save {r4, r5, r6, lr}
	mov	r4, #0
	str	r6, [sp, #8]
	str	lr, [sp, #12]
	ldr	r5, [r0, #8]
	add	r6, r5, #100
	mov	r0, r6
	bl	_raw_spin_lock_irqsave(PLT)
	mov	r1, r0
	str	r4, [r5, #84]
	mov	r0, r6
	bl	_raw_spin_unlock_irqrestore(PLT)
	ldr	r6, [sp, #8]
	mov	r0, r4
	ldrd	r4, [sp]
	add	sp, sp, #12
	ldr	pc, [sp], #4
	.fnend
	.size	audio_pcm_close, .-audio_pcm_close
	.align	2
	.type	debug_write_reset, %function
debug_write_reset:
	.fnstart
	@ args = 0, pretend = 0, frame = 0
	@ frame_needed = 0, uses_anonymous_args = 0
	strd	r4, [sp, #-16]!
	.save {r4, r5, r6, lr}
	mov	r5, r2
	str	r6, [sp, #8]
	str	lr, [sp, #12]
	ldr	r4, [r0, #124]
	mov	r0, r4
	bl	_raw_spin_lock_irqsave(PLT)
	mov	r3, #0
	mov	r1, r0
	mov	r0, r4
	str	r3, [r4, #140]
	str	r3, [r4, #136]
	str	r3, [r4, #132]
	str	r3, [r4, #128]
	bl	_raw_spin_unlock_irqrestore(PLT)
	ldr	r6, [sp, #8]
	mov	r0, r5
	ldrd	r4, [sp]
	add	sp, sp, #12
	ldr	pc, [sp], #4
	.fnend
	.size	debug_write_reset, .-debug_write_reset
	.align	2
	.type	gs_chars_in_buffer, %function
gs_chars_in_buffer:
	.fnstart
	@ args = 0, pretend = 0, frame = 0
	@ frame_needed = 0, uses_anonymous_args = 0
	.save {r4, lr}
	str	r4, [sp, #-8]!
	str	lr, [sp, #4]
	ldr	r4, [r0, #280]
	mov	r0, r4
	bl	_raw_spin_lock_irqsave(PLT)
	ldr	ip, [r4, #92]
	mov	r1, r0
	mov	r0, r4
	ldr	r2, [r4, #104]
	ldr	r3, [r4, #100]
	add	r2, r2, ip
	rsb	r3, r3, r2
	udiv	r4, r3, ip
	mls	r4, ip, r4, r3
	bl	_raw_spin_unlock_irqrestore(PLT)
	mov	r0, r4
	ldr	r4, [sp]
	add	sp, sp, #4
	ldr	pc, [sp], #4
	.fnend
	.size	gs_chars_in_buffer, .-gs_chars_in_buffer
	.align	2
	.type	gs_write_room, %function
gs_write_room:
	.fnstart
	@ args = 0, pretend = 0, frame = 0
	@ frame_needed = 0, uses_anonymous_args = 0
	strd	r4, [sp, #-16]!
	.save {r4, r5, r6, lr}
	str	r6, [sp, #8]
	str	lr, [sp, #12]
	ldr	r4, [r0, #280]
	mov	r0, r4
	bl	_raw_spin_lock_irqsave(PLT)
	ldr	r3, [r4, #4]
	mov	r1, r0
	cmp	r3, #0
	beq	.L633
	ldr	r5, [r4, #92]
	ldr	r3, [r4, #100]
	ldr	r2, [r4, #104]
	add	r3, r3, r5
	rsb	r3, r2, r3
	sub	r3, r3, #1
	udiv	r2, r3, r5
	mls	r5, r5, r2, r3
.L632:
	mov	r0, r4
	bl	_raw_spin_unlock_irqrestore(PLT)
	ldr	r6, [sp, #8]
	mov	r0, r5
	ldrd	r4, [sp]
	add	sp, sp, #12
	ldr	pc, [sp], #4
.L633:
	mov	r5, r3
	b	.L632
	.fnend
	.size	gs_write_room, .-gs_write_room
	.align	2
	.type	debug_sdio_reset_stats, %function
debug_sdio_reset_stats:
	.fnstart
	@ args = 0, pretend = 0, frame = 0
	@ frame_needed = 0, uses_anonymous_args = 0
	strd	r4, [sp, #-36]!
	.save {r4, r5, r6, r7, r8, r9, r10, fp, lr}
	strd	r8, [sp, #16]
	ldr	r8, .L642
	strd	r10, [sp, #24]
	mov	r10, r2
	strd	r6, [sp, #8]
	str	lr, [sp, #32]
	.pad #4
	sub	sp, sp, #4
.LPIC72:
	add	r8, pc, r8
	ldr	r3, [r8, #92]
	cmp	r3, #0
	beq	.L640
	mov	r5, #0
	add	fp, r8, #96
	mov	r6, r5
	mov	r9, r5
.L636:
	add	r3, fp, r5
	add	r6, r6, #1
	ldr	r4, [r3, #24]
	add	r5, r5, #108
	add	r7, r4, #4
	mov	r0, r7
	bl	_raw_spin_lock_irqsave(PLT)
	mov	r1, r0
	str	r9, [r4, #180]
	mov	r0, r7
	str	r9, [r4, #184]
	bl	_raw_spin_unlock_irqrestore(PLT)
	ldr	r3, [r8, #92]
	cmp	r6, r3
	bcc	.L636
.L640:
	mov	r0, r10
	add	sp, sp, #4
	@ sp needed
	ldrd	r4, [sp]
	ldrd	r6, [sp, #8]
	ldrd	r8, [sp, #16]
	ldrd	r10, [sp, #24]
	add	sp, sp, #32
	ldr	pc, [sp], #4
.L643:
	.align	2
.L642:
	.word	.LANCHOR2-(.LPIC72+8)
	.fnend
	.size	debug_sdio_reset_stats, .-debug_sdio_reset_stats
	.align	2
	.type	debug_smd_reset_stats, %function
debug_smd_reset_stats:
	.fnstart
	@ args = 0, pretend = 0, frame = 0
	@ frame_needed = 0, uses_anonymous_args = 0
	strd	r4, [sp, #-36]!
	.save {r4, r5, r6, r7, r8, r9, r10, fp, lr}
	strd	r8, [sp, #16]
	ldr	r8, .L651
	strd	r10, [sp, #24]
	mov	r10, r2
	strd	r6, [sp, #8]
	str	lr, [sp, #32]
	.pad #4
	sub	sp, sp, #4
.LPIC75:
	add	r8, pc, r8
	ldr	r3, [r8, #312]
	cmp	r3, #0
	beq	.L649
	mov	r5, #0
	add	fp, r8, #316
	mov	r6, r5
	mov	r9, r5
.L645:
	add	r3, fp, r5
	add	r6, r6, #1
	ldr	r4, [r3, #24]
	add	r5, r5, #108
	add	r7, r4, #4
	mov	r0, r7
	bl	_raw_spin_lock_irqsave(PLT)
	mov	r1, r0
	str	r9, [r4, #168]
	mov	r0, r7
	str	r9, [r4, #164]
	bl	_raw_spin_unlock_irqrestore(PLT)
	ldr	r3, [r8, #312]
	cmp	r6, r3
	bcc	.L645
.L649:
	mov	r0, r10
	add	sp, sp, #4
	@ sp needed
	ldrd	r4, [sp]
	ldrd	r6, [sp, #8]
	ldrd	r8, [sp, #16]
	ldrd	r10, [sp, #24]
	add	sp, sp, #32
	ldr	pc, [sp], #4
.L652:
	.align	2
.L651:
	.word	.LANCHOR2-(.LPIC75+8)
	.fnend
	.size	debug_smd_reset_stats, .-debug_smd_reset_stats
	.align	2
	.type	gsmd_ctrl_reset_stats, %function
gsmd_ctrl_reset_stats:
	.fnstart
	@ args = 0, pretend = 0, frame = 0
	@ frame_needed = 0, uses_anonymous_args = 0
	strd	r4, [sp, #-32]!
	.save {r4, r5, r6, r7, r8, r9, r10, lr}
	mov	r5, #0
	strd	r8, [sp, #16]
	ldr	r8, .L661
	mov	r9, r2
	strd	r6, [sp, #8]
	mov	r7, r5
	str	r10, [sp, #24]
	str	lr, [sp, #28]
.LPIC78:
	add	r8, pc, r8
.L655:
	add	r3, r8, #532
	ldr	r4, [r5, r3]
	add	r5, r5, #84
	cmp	r4, #0
	add	r6, r4, #108
	mov	r0, r6
	beq	.L654
	bl	_raw_spin_lock_irqsave(PLT)
	mov	r1, r0
	str	r7, [r4, #96]
	mov	r0, r6
	str	r7, [r4, #92]
	bl	_raw_spin_unlock_irqrestore(PLT)
.L654:
	cmp	r5, #504
	bne	.L655
	mov	r0, r9
	ldrd	r4, [sp]
	ldrd	r6, [sp, #8]
	ldrd	r8, [sp, #16]
	ldr	r10, [sp, #24]
	add	sp, sp, #28
	ldr	pc, [sp], #4
.L662:
	.align	2
.L661:
	.word	.LANCHOR2-(.LPIC78+8)
	.fnend
	.size	gsmd_ctrl_reset_stats, .-gsmd_ctrl_reset_stats
	.align	2
	.type	rmnet_ctrl_release, %function
rmnet_ctrl_release:
	.fnstart
	@ args = 0, pretend = 0, frame = 0
	@ frame_needed = 0, uses_anonymous_args = 0
	strd	r4, [sp, #-16]!
	.save {r4, r5, r6, lr}
	mov	r5, #0
	str	lr, [sp, #12]
	str	r6, [sp, #8]
	ldr	r4, [r1, #124]
	add	r6, r4, #52
	mov	r0, r6
	bl	_raw_spin_lock_irqsave(PLT)
	mov	r1, r0
	strb	r5, [r4, #4]
	mov	r0, r6
	bl	_raw_spin_unlock_irqrestore(PLT)
	add	r3, r4, #16
#APP
@ 83 "/home/ikke/Workspace/kernel_oneplus_onyx/arch/arm/include/asm/atomic.h" 1
	@ atomic_sub
1:	ldrex	r2, [r3]
	sub	r2, r2, #1
	strex	r1, r2, [r3]
	teq	r1, #0
	bne	1b
@ 0 "" 2
	mov	r0, r5
	ldr	r6, [sp, #8]
	ldrd	r4, [sp]
	add	sp, sp, #12
	ldr	pc, [sp], #4
	.fnend
	.size	rmnet_ctrl_release, .-rmnet_ctrl_release
	.align	2
	.type	gctrl_reset_stats, %function
gctrl_reset_stats:
	.fnstart
	@ args = 0, pretend = 0, frame = 0
	@ frame_needed = 0, uses_anonymous_args = 0
	strd	r4, [sp, #-32]!
	.save {r4, r5, r6, r7, r8, r9, r10, lr}
	str	r10, [sp, #24]
	ldr	r10, .L676
	strd	r8, [sp, #16]
	mov	r9, r2
	strd	r6, [sp, #8]
	str	lr, [sp, #28]
.LPIC79:
	add	r10, pc, r10
	ldr	r3, [r10, #1036]
	cmp	r3, #0
	beq	.L674
	mov	r5, #0
	mov	r6, r5
	mov	r8, r5
.L668:
	add	r4, r10, #1040
	add	r6, r6, #1
	ldr	r4, [r5, r4]
	add	r5, r5, #104
	cmp	r4, #0
	add	r7, r4, #4
	mov	r0, r7
	beq	.L667
	bl	_raw_spin_lock_irqsave(PLT)
	mov	r1, r0
	str	r8, [r4, #100]
	mov	r0, r7
	str	r8, [r4, #96]
	str	r8, [r4, #104]
	bl	_raw_spin_unlock_irqrestore(PLT)
	ldr	r3, [r10, #1036]
.L667:
	cmp	r6, r3
	bcc	.L668
.L674:
	mov	r0, r9
	ldrd	r4, [sp]
	ldrd	r6, [sp, #8]
	ldrd	r8, [sp, #16]
	ldr	r10, [sp, #24]
	add	sp, sp, #28
	ldr	pc, [sp], #4
.L677:
	.align	2
.L676:
	.word	.LANCHOR2-(.LPIC79+8)
	.fnend
	.size	gctrl_reset_stats, .-gctrl_reset_stats
	.align	2
	.type	ghsic_data_reset_stats, %function
ghsic_data_reset_stats:
	.fnstart
	@ args = 0, pretend = 0, frame = 0
	@ frame_needed = 0, uses_anonymous_args = 0
	strd	r4, [sp, #-36]!
	.save {r4, r5, r6, r7, r8, r9, r10, fp, lr}
	strd	r8, [sp, #16]
	ldr	r9, .L689
	strd	r10, [sp, #24]
	mov	r10, r2
	strd	r6, [sp, #8]
	str	lr, [sp, #32]
	.pad #4
	sub	sp, sp, #4
.LPIC82:
	add	r9, pc, r9
	ldr	r3, [r9, #1456]
	cmp	r3, #0
	beq	.L687
	mov	r6, #0
	mov	r7, r6
	mov	r5, r6
.L681:
	add	r4, r9, #1456
	add	r7, r7, #1
	add	r4, r4, #4
	ldr	r4, [r6, r4]
	add	r6, r6, #104
	cmp	r4, #0
	add	r8, r4, #80
	add	fp, r4, #48
	mov	r0, r8
	beq	.L680
	bl	_raw_spin_lock_irqsave(PLT)
	mov	r1, r0
	str	r5, [r4, #188]
	mov	r0, r8
	str	r5, [r4, #212]
	str	r5, [r4, #204]
	str	r5, [r4, #208]
	bl	_raw_spin_unlock_irqrestore(PLT)
	mov	r0, fp
	bl	_raw_spin_lock_irqsave(PLT)
	mov	r1, r0
	str	r5, [r4, #192]
	mov	r0, fp
	str	r5, [r4, #196]
	str	r5, [r4, #200]
	str	r5, [r4, #216]
	bl	_raw_spin_unlock_irqrestore(PLT)
	ldr	r3, [r9, #1456]
.L680:
	cmp	r7, r3
	bcc	.L681
.L687:
	mov	r0, r10
	add	sp, sp, #4
	@ sp needed
	ldrd	r4, [sp]
	ldrd	r6, [sp, #8]
	ldrd	r8, [sp, #16]
	ldrd	r10, [sp, #24]
	add	sp, sp, #32
	ldr	pc, [sp], #4
.L690:
	.align	2
.L689:
	.word	.LANCHOR2-(.LPIC82+8)
	.fnend
	.size	ghsic_data_reset_stats, .-ghsic_data_reset_stats
	.align	2
	.type	ghsuart_ctrl_reset_stats, %function
ghsuart_ctrl_reset_stats:
	.fnstart
	@ args = 0, pretend = 0, frame = 0
	@ frame_needed = 0, uses_anonymous_args = 0
	strd	r4, [sp, #-32]!
	.save {r4, r5, r6, r7, r8, r9, r10, lr}
	strd	r6, [sp, #8]
	ldr	r6, .L702
	strd	r8, [sp, #16]
	mov	r8, r2
	str	r10, [sp, #24]
	str	lr, [sp, #28]
.LPIC85:
	add	r6, pc, r6
	ldr	r3, [r6, #1876]
	cmp	r3, #0
	beq	.L700
	mov	r5, #0
	mov	r7, r5
	mov	r9, r5
.L694:
	add	r4, r6, #1872
	add	r7, r7, #1
	add	r4, r4, #8
	ldr	r4, [r5, r4]
	add	r5, r5, #84
	cmp	r4, #0
	add	r10, r4, #8
	mov	r0, r10
	beq	.L693
	bl	_raw_spin_lock_irqsave(PLT)
	mov	r1, r0
	str	r9, [r4, #100]
	mov	r0, r10
	str	r9, [r4, #96]
	str	r9, [r4, #104]
	bl	_raw_spin_unlock_irqrestore(PLT)
	ldr	r3, [r6, #1876]
.L693:
	cmp	r7, r3
	bcc	.L694
.L700:
	mov	r0, r8
	ldrd	r4, [sp]
	ldrd	r6, [sp, #8]
	ldrd	r8, [sp, #16]
	ldr	r10, [sp, #24]
	add	sp, sp, #28
	ldr	pc, [sp], #4
.L703:
	.align	2
.L702:
	.word	.LANCHOR2-(.LPIC85+8)
	.fnend
	.size	ghsuart_ctrl_reset_stats, .-ghsuart_ctrl_reset_stats
	.align	2
	.type	ghsuart_data_reset_stats, %function
ghsuart_data_reset_stats:
	.fnstart
	@ args = 0, pretend = 0, frame = 0
	@ frame_needed = 0, uses_anonymous_args = 0
	strd	r4, [sp, #-36]!
	.save {r4, r5, r6, r7, r8, r9, r10, fp, lr}
	strd	r6, [sp, #8]
	ldr	r6, .L715
	strd	r8, [sp, #16]
	mov	r9, r2
	strd	r10, [sp, #24]
	str	lr, [sp, #32]
	.pad #4
	sub	sp, sp, #4
.LPIC88:
	add	r6, pc, r6
	ldr	r3, [r6, #2048]
	cmp	r3, #0
	beq	.L713
	mov	r5, #0
	mov	r7, r5
	mov	r8, r5
.L707:
	add	r4, r6, #2048
	add	r7, r7, #1
	add	r4, r4, #4
	ldr	r4, [r5, r4]
	add	r5, r5, #84
	cmp	r4, #0
	add	fp, r4, #104
	add	r10, r4, #72
	mov	r0, fp
	beq	.L706
	bl	_raw_spin_lock_irqsave(PLT)
	mov	r1, r0
	str	r8, [r4, #204]
	mov	r0, fp
	str	r8, [r4, #212]
	bl	_raw_spin_unlock_irqrestore(PLT)
	mov	r0, r10
	bl	_raw_spin_lock_irqsave(PLT)
	mov	r1, r0
	str	r8, [r4, #208]
	mov	r0, r10
	bl	_raw_spin_unlock_irqrestore(PLT)
	ldr	r3, [r6, #2048]
.L706:
	cmp	r7, r3
	bcc	.L707
.L713:
	mov	r0, r9
	add	sp, sp, #4
	@ sp needed
	ldrd	r4, [sp]
	ldrd	r6, [sp, #8]
	ldrd	r8, [sp, #16]
	ldrd	r10, [sp, #24]
	add	sp, sp, #32
	ldr	pc, [sp], #4
.L716:
	.align	2
.L715:
	.word	.LANCHOR2-(.LPIC88+8)
	.fnend
	.size	ghsuart_data_reset_stats, .-ghsuart_data_reset_stats
	.align	2
	.type	ueth_change_mtu, %function
ueth_change_mtu:
	.fnstart
	@ args = 0, pretend = 0, frame = 0
	@ frame_needed = 0, uses_anonymous_args = 0
	strd	r4, [sp, #-16]!
	.save {r4, r5, r6, lr}
	add	r5, r0, #1216
	mov	r4, r0
	mov	r0, r5
	str	r6, [sp, #8]
	mov	r6, r1
	str	lr, [sp, #12]
	bl	_raw_spin_lock_irqsave(PLT)
	ldr	r3, [r4, #1220]
	mov	r1, r0
	cmp	r3, #0
	mvnne	r4, #15
	bne	.L718
	sub	r0, r6, #15
	movw	r2, #1499
	cmp	r0, r2
	mvnhi	r4, #33
	strls	r6, [r4, #316]
	movls	r4, r3
.L718:
	mov	r0, r5
	bl	_raw_spin_unlock_irqrestore(PLT)
	ldr	r6, [sp, #8]
	mov	r0, r4
	ldrd	r4, [sp]
	add	sp, sp, #12
	ldr	pc, [sp], #4
	.fnend
	.size	ueth_change_mtu, .-ueth_change_mtu
	.align	2
	.type	ueth_qc_change_mtu, %function
ueth_qc_change_mtu:
	.fnstart
	@ args = 0, pretend = 0, frame = 0
	@ frame_needed = 0, uses_anonymous_args = 0
	strd	r4, [sp, #-16]!
	.save {r4, r5, r6, lr}
	add	r5, r0, #1216
	mov	r4, r0
	mov	r0, r5
	str	r6, [sp, #8]
	mov	r6, r1
	str	lr, [sp, #12]
	bl	_raw_spin_lock_irqsave(PLT)
	ldr	r3, [r4, #1220]
	mov	r1, r0
	cmp	r3, #0
	mvnne	r4, #15
	bne	.L723
	sub	r0, r6, #15
	movw	r2, #1499
	cmp	r0, r2
	mvnhi	r4, #33
	strls	r6, [r4, #316]
	movls	r4, r3
.L723:
	mov	r0, r5
	bl	_raw_spin_unlock_irqrestore(PLT)
	ldr	r6, [sp, #8]
	mov	r0, r4
	ldrd	r4, [sp]
	add	sp, sp, #12
	ldr	pc, [sp], #4
	.fnend
	.size	ueth_qc_change_mtu, .-ueth_qc_change_mtu
	.align	2
	.type	ccid_ctrl_open, %function
ccid_ctrl_open:
	.fnstart
	@ args = 0, pretend = 0, frame = 0
	@ frame_needed = 0, uses_anonymous_args = 0
	ldr	r3, .L732
	strd	r4, [sp, #-24]!
	.save {r4, r5, r6, r7, r8, lr}
	strd	r6, [sp, #8]
	str	r8, [sp, #16]
	str	lr, [sp, #20]
.LPIC91:
	add	r3, pc, r3
	ldr	r4, [r3, #2220]
	ldr	r3, [r4, #88]
	cmp	r3, #0
	beq	.L729
	ldr	r6, [r4, #108]
	cmp	r6, #0
	bne	.L730
	mov	r3, #1
	add	r7, r4, #84
	mov	r5, r1
	mov	r0, r7
	str	r3, [r4, #108]
	bl	_raw_spin_lock_irqsave(PLT)
	mov	r1, r0
	str	r4, [r5, #124]
	mov	r0, r7
	bl	_raw_spin_unlock_irqrestore(PLT)
.L728:
	mov	r0, r6
	ldrd	r4, [sp]
	ldrd	r6, [sp, #8]
	ldr	r8, [sp, #16]
	add	sp, sp, #20
	ldr	pc, [sp], #4
.L730:
	mvn	r6, #15
	b	.L728
.L729:
	mvn	r6, #18
	b	.L728
.L733:
	.align	2
.L732:
	.word	.LANCHOR2-(.LPIC91+8)
	.fnend
	.size	ccid_ctrl_open, .-ccid_ctrl_open
	.align	2
	.type	ccid_bulk_open, %function
ccid_bulk_open:
	.fnstart
	@ args = 0, pretend = 0, frame = 0
	@ frame_needed = 0, uses_anonymous_args = 0
	ldr	r3, .L739
	strd	r4, [sp, #-24]!
	.save {r4, r5, r6, r7, r8, lr}
	strd	r6, [sp, #8]
	str	r8, [sp, #16]
	str	lr, [sp, #20]
.LPIC92:
	add	r3, pc, r3
	ldr	r4, [r3, #2220]
	ldr	r3, [r4, #88]
	cmp	r3, #0
	beq	.L736
	ldr	r5, [r4, #144]
	cmp	r5, #0
	bne	.L737
	mov	r3, #1
	add	r7, r4, #84
	str	r5, [r4, #140]
	mov	r6, r1
	mov	r0, r7
	str	r3, [r4, #144]
	bl	_raw_spin_lock_irqsave(PLT)
	mov	r1, r0
	str	r4, [r6, #124]
	mov	r0, r7
	bl	_raw_spin_unlock_irqrestore(PLT)
.L735:
	mov	r0, r5
	ldrd	r6, [sp, #8]
	ldrd	r4, [sp]
	ldr	r8, [sp, #16]
	add	sp, sp, #20
	ldr	pc, [sp], #4
.L737:
	mvn	r5, #15
	b	.L735
.L736:
	mvn	r5, #18
	b	.L735
.L740:
	.align	2
.L739:
	.word	.LANCHOR2-(.LPIC92+8)
	.fnend
	.size	ccid_bulk_open, .-ccid_bulk_open
	.align	2
	.type	rmnet_mux_smd_start_rx, %function
rmnet_mux_smd_start_rx:
	.fnstart
	@ args = 0, pretend = 0, frame = 8
	@ frame_needed = 0, uses_anonymous_args = 0
	strd	r4, [sp, #-36]!
	.save {r4, r5, r6, r7, r8, r9, r10, fp, lr}
	mov	r5, r0
	strd	r6, [sp, #8]
	add	r6, r0, #356
	add	r7, r0, #104
	strd	r8, [sp, #16]
	mov	r9, #256
	mov	r8, #512
	strd	r10, [sp, #24]
	str	lr, [sp, #32]
	ldr	r3, [r0, #76]
	.pad #12
	sub	sp, sp, #12
	mov	r0, r6
	str	r3, [sp, #4]
	bl	_raw_spin_lock_irqsave(PLT)
	mov	fp, r0
	b	.L742
.L744:
	ldrd	r2, [r4]
	str	r3, [r2, #4]
	str	r2, [r3]
	str	r9, [r4]
	str	r8, [r4, #4]
	bl	_raw_spin_unlock_irqrestore(PLT)
	ldr	r0, [r5, #80]
	sub	r1, r4, #36
	mov	r2, #32
	ldr	r3, [r0, #8]
	ldr	r3, [r3, #16]
	blx	r3
	mov	r10, r0
	mov	r0, r6
	bl	_raw_spin_lock_irqsave(PLT)
	cmp	r10, #0
	mov	fp, r0
	bne	.L748
.L742:
	ldr	r4, [r5, #104]
	mov	r1, fp
	mov	r0, r6
	cmp	r7, r4
	bne	.L744
.L743:
	mov	r0, r6
	mov	r1, fp
	add	sp, sp, #12
	@ sp needed
	ldrd	r4, [sp]
	ldrd	r6, [sp, #8]
	ldrd	r8, [sp, #16]
	ldrd	r10, [sp, #24]
	ldr	lr, [sp, #32]
	add	sp, sp, #36
	b	_raw_spin_unlock_irqrestore(PLT)
.L748:
	ldr	r3, [sp, #4]
	mov	r2, r10
	ldr	r1, .L749
	ldr	r0, [r3]
.LPIC93:
	add	r1, pc, r1
	add	r0, r0, #32
	bl	dev_err(PLT)
	ldr	r3, [r5, #108]
	str	r4, [r5, #108]
	str	r7, [r4]
	str	r3, [r4, #4]
	str	r4, [r3]
	b	.L743
.L750:
	.align	2
.L749:
	.word	.LC20-(.LPIC93+8)
	.fnend
	.size	rmnet_mux_smd_start_rx, .-rmnet_mux_smd_start_rx
	.align	2
	.type	audio_pcm_hw_params, %function
audio_pcm_hw_params:
	.fnstart
	@ args = 0, pretend = 0, frame = 0
	@ frame_needed = 0, uses_anonymous_args = 0
	ldr	ip, [r1, #296]
	movw	r2, #44100
	ldr	r3, [r1, #284]
	cmp	r3, #2
	cmpeq	ip, r2
	bne	.L757
	strd	r4, [sp, #-20]!
	.save {r4, r5, r6, r7, lr}
	mov	r4, r0
	strd	r6, [sp, #8]
	str	lr, [sp, #16]
	ldr	r3, [r0]
	.pad #12
	sub	sp, sp, #12
	ldr	r2, [r3]
	ldr	r2, [r2, #500]
	add	r2, r2, #256
	ldrd	r6, [r2]
	orrs	r0, r6, r7
	beq	.L763
.L753:
	mov	r0, #2
	mov	ip, #0
	add	r2, r4, #140
	str	r0, [r4, #128]
	ldr	r0, [r3]
	ldr	r0, [r0, #500]
	str	ip, [r4, #148]
	str	r0, [r4, #132]
	ldr	r3, [r3]
	ldr	lr, [r1, #380]
	ldr	r0, [r3, #500]
	cmp	r0, ip
	beq	.L754
	ldr	ip, [r0, #284]
	cmp	ip, #0
	beq	.L754
.L755:
	mov	r6, #0
	mov	r5, r1
	mov	r3, #208
	mov	r1, lr
	str	r6, [sp]
	ldr	ip, [ip]
	blx	ip
	cmp	r0, r6
	str	r0, [r4, #136]
	beq	.L758
	ldr	r1, [r5, #380]
	adds	r2, r4, #128
	ldr	r3, [r4, #164]
	str	r1, [r4, #144]
	str	r2, [r3, #560]
	beq	.L756
	ldr	r2, [r4, #136]
	mov	r0, r6
	str	r2, [r3, #548]
	ldr	r2, [r4, #140]
	str	r2, [r3, #552]
	ldr	r2, [r4, #144]
	str	r2, [r3, #556]
.L752:
	add	sp, sp, #12
	@ sp needed
	ldrd	r4, [sp]
	ldrd	r6, [sp, #8]
	add	sp, sp, #16
	ldr	pc, [sp], #4
.L763:
	mvn	r6, #0
	mov	r7, #0
	strd	r6, [r2]
	ldr	r3, [r4]
	b	.L753
.L754:
	ldr	ip, .L764
.LPIC95:
	ldr	ip, [pc, ip]		@ tls_load_dot_plus_eight
	b	.L755
.L756:
	mov	r0, r2
	str	r2, [r3, #548]
	str	r2, [r3, #552]
	str	r2, [r3, #556]
	b	.L752
.L757:
	mvn	r0, #21
	bx	lr
.L758:
	mvn	r0, #11
	b	.L752
.L765:
	.align	2
.L764:
	.word	arm_dma_ops(GOT_PREL)+(.-(.LPIC95+8))
	.fnend
	.size	audio_pcm_hw_params, .-audio_pcm_hw_params
	.align	2
	.type	ffs_ep0_open, %function
ffs_ep0_open:
	.fnstart
	@ args = 0, pretend = 0, frame = 0
	@ frame_needed = 0, uses_anonymous_args = 0
	@ link register save eliminated.
	ldr	r3, [r0, #348]
	ldr	r2, [r3, #96]
	cmp	r2, #3
	beq	.L768
	str	r3, [r1, #124]
	add	r2, r3, #88
#APP
@ 45 "/home/ikke/Workspace/kernel_oneplus_onyx/arch/arm/include/asm/atomic.h" 1
	@ atomic_add
1:	ldrex	r1, [r2]
	add	r1, r1, #1
	strex	r0, r1, [r2]
	teq	r0, #0
	bne	1b
@ 0 "" 2
	add	r2, r3, #92
#APP
@ 45 "/home/ikke/Workspace/kernel_oneplus_onyx/arch/arm/include/asm/atomic.h" 1
	@ atomic_add
1:	ldrex	r1, [r2]
	add	r1, r1, #1
	strex	r0, r1, [r2]
	teq	r0, #0
	bne	1b
@ 0 "" 2
	mov	r0, #0
	bx	lr
.L768:
	mvn	r0, #15
	bx	lr
	.fnend
	.size	ffs_ep0_open, .-ffs_ep0_open
	.align	2
	.type	rmnet_txcommand_complete, %function
rmnet_txcommand_complete:
	.fnstart
	@ args = 0, pretend = 0, frame = 0
	@ frame_needed = 0, uses_anonymous_args = 0
	strd	r4, [sp, #-16]!
	.save {r4, r5, r6, lr}
	str	r6, [sp, #8]
	str	lr, [sp, #12]
	ldr	r4, [r1, #32]
	add	r5, r4, #156
	mov	r0, r5
	bl	_raw_spin_lock(PLT)
	ldr	r3, [r4, #432]
	mov	r0, r5
	add	r3, r3, #1
	str	r3, [r4, #432]
	ldrd	r4, [sp]
	ldr	r6, [sp, #8]
	ldr	lr, [sp, #12]
	add	sp, sp, #16
	b	_raw_spin_unlock(PLT)
	.fnend
	.size	rmnet_txcommand_complete, .-rmnet_txcommand_complete
	.align	2
	.type	ncm_notify_complete, %function
ncm_notify_complete:
	.fnstart
	@ args = 0, pretend = 0, frame = 0
	@ frame_needed = 0, uses_anonymous_args = 0
	strd	r4, [sp, #-24]!
	.save {r4, r5, r6, r7, r8, lr}
	mov	r5, r1
	strd	r6, [sp, #8]
	str	r8, [sp, #16]
	str	lr, [sp, #20]
	ldr	r4, [r1, #32]
	add	r6, r4, #176
	mov	r0, r6
	bl	_raw_spin_lock(PLT)
	ldr	r3, [r5, #44]
	cmn	r3, #108
	beq	.L773
	cmn	r3, #104
	beq	.L773
.L772:
	ldr	r3, [r4, #20]
	cmp	r5, #0
	str	r5, [r4, #160]
	ldr	r1, [r3, #24]
	beq	.L775
	ldrb	r2, [r4, #164]	@ zero_extendqisi2
	ldr	r3, [r5]
	cmp	r2, #1
	beq	.L777
	bcc	.L775
	cmp	r2, #2
	bne	.L776
	mov	r2, #0
	mov	r0, #8
	mov	lr, #42
	mov	ip, #16
	strb	r2, [r3, #2]
	strb	lr, [r3, #1]
	strb	r2, [r3, #3]
	strb	r2, [r3, #7]
	strb	r0, [r3, #6]
	ldr	r0, [r5]
	str	ip, [r5, #4]
	ldr	r2, [r1]
	ldr	r1, [r2, #20]
	cmp	r1, #2
	movls	r2, #28672
	movtls	r2, 148
	bhi	.L790
.L779:
	mov	r1, #1
	str	r2, [r0, #8]
	str	r2, [r0, #12]
	strb	r1, [r4, #164]
.L776:
	mvn	r1, #94
	mov	r2, #0
	mov	r0, r6
	strb	r1, [r3]
	ldrb	r1, [r4, #140]	@ zero_extendqisi2
	strh	r1, [r3, #4]	@ unaligned
	str	r2, [r4, #160]
	bl	_raw_spin_unlock(PLT)
	ldr	r0, [r4, #156]
	mov	r1, r5
	mov	r2, #32
	ldr	r3, [r0, #8]
	ldr	r3, [r3, #16]
	blx	r3
	mov	r7, r0
	mov	r0, r6
	bl	_raw_spin_lock(PLT)
	cmp	r7, #0
	strlt	r5, [r4, #160]
.L775:
	mov	r0, r6
	ldrd	r4, [sp]
	ldrd	r6, [sp, #8]
	ldr	r8, [sp, #16]
	ldr	lr, [sp, #20]
	add	sp, sp, #24
	b	_raw_spin_unlock(PLT)
.L773:
	mov	r3, #0
	strb	r3, [r4, #164]
	b	.L772
.L777:
	mov	r2, #0
	mov	r1, #8
	strb	r2, [r3, #1]
	ldrb	r0, [r4, #165]	@ zero_extendqisi2
	strb	r2, [r3, #6]
	strb	r2, [r3, #7]
	strh	r0, [r3, #2]	@ unaligned
	str	r1, [r5, #4]
	strb	r2, [r4, #164]
	b	.L776
.L790:
	ldr	ip, [r2, #16]
	mov	r1, #28672
	mov	r2, #0
	movt	r1, 148
	movt	r2, 6500
	cmp	ip, #3
	movne	r2, r1
	b	.L779
	.fnend
	.size	ncm_notify_complete, .-ncm_notify_complete
	.align	2
	.type	rmnet_mux_setup, %function
rmnet_mux_setup:
	.fnstart
	@ args = 0, pretend = 0, frame = 0
	@ frame_needed = 0, uses_anonymous_args = 0
	strd	r4, [sp, #-32]!
	.save {r4, r5, r6, r7, r8, r9, r10, lr}
	strd	r6, [sp, #8]
	strd	r8, [sp, #16]
	str	r10, [sp, #24]
	str	lr, [sp, #28]
	ldr	ip, [r0, #20]
	ldr	r2, [r0, #360]
	ldrh	r3, [r1, #2]	@ unaligned
	ldrh	r6, [r1, #6]	@ unaligned
	ldr	r7, [ip, #24]
	cmp	r2, #0
	ldr	r5, [r7, #4]
	beq	.L800
	mov	r4, r0
	ldrb	r0, [r1]	@ zero_extendqisi2
	movw	r2, #8482
	ldrb	r1, [r1, #1]	@ zero_extendqisi2
	orr	r1, r1, r0, asl #8
	cmp	r1, r2
	beq	.L793
	movw	r2, #41217
	cmp	r1, r2
	beq	.L794
	cmp	r1, #8448
	beq	.L806
.L802:
	mvn	r0, #94
.L804:
	ldrd	r4, [sp]
	ldrd	r6, [sp, #8]
	ldrd	r8, [sp, #16]
	ldr	r10, [sp, #24]
	add	sp, sp, #28
	ldr	pc, [sp], #4
.L794:
	cmp	r3, #0
	bne	.L802
	add	r9, r4, #356
	mov	r0, r9
	bl	_raw_spin_lock(PLT)
	mov	r3, r4
	ldr	r8, [r3, #328]!
	cmp	r8, r3
	beq	.L807
	ldr	r3, [r8, #4]
	mov	ip, #256
	mov	r1, #512
	ldr	r2, [r8]
	mov	r0, r9
	mov	r9, r8
	str	r3, [r2, #4]
	str	r2, [r3]
	str	ip, [r8]
	str	r1, [r8, #4]
	ldr	r3, [r4, #336]
	sub	r3, r3, #1
	str	r3, [r4, #336]
	bl	_raw_spin_unlock(PLT)
	ldr	r3, [r8, #-4]
	ldr	r1, [r8, #-8]
	ldr	r0, [r5]
	cmp	r6, r3
	movcs	r8, r3
	movcc	r8, r6
	mov	r2, r8
	bl	memcpy(PLT)
	ldr	r3, .L808
	str	r4, [r5, #32]
.LPIC97:
	add	r3, pc, r3
	str	r3, [r5, #28]
	ldr	r0, [r9, #-8]!
	bl	kfree(PLT)
	mov	r0, r9
	bl	kfree(PLT)
	ldr	r3, [r4, #404]
	cmp	r6, r8
	mov	r6, r8
	movle	ip, #0
	movgt	ip, #1
	add	r3, r3, #1
	str	r3, [r4, #404]
	b	.L796
.L806:
	ldr	r3, .L808+4
	mov	ip, #0
	str	r4, [r5, #32]
.LPIC96:
	add	r3, pc, r3
	str	r3, [r5, #28]
.L796:
	ldrb	r0, [r5, #26]	@ zero_extendqisi2
	str	r6, [r5, #4]
	mov	r1, r5
	mov	r2, #32
	bfi	r0, ip, #1, #1
	strb	r0, [r5, #26]
	ldr	r3, [r7]
	ldr	r0, [r3, #4]
	ldr	r3, [r0, #8]
	ldr	r3, [r3, #16]
	blx	r3
	subs	r4, r0, #0
	blt	.L799
	mov	r0, r4
	b	.L804
.L793:
	ands	r3, r3, #1
	beq	.L798
	ldr	r3, [r4, #340]
	adds	ip, r6, #0
	mov	r6, #0
	movne	ip, #1
	orr	r3, r3, #2
	str	r3, [r4, #340]
	b	.L796
.L798:
	ldr	r2, [r4, #340]
	adds	ip, r6, #0
	mov	r6, r3
	movne	ip, #1
	bic	r2, r2, #2
	str	r2, [r4, #340]
	b	.L796
.L799:
	ldr	r0, [r7]
	mov	r2, r4
	ldr	r1, .L808+8
	add	r0, r0, #32
.LPIC98:
	add	r1, pc, r1
	bl	dev_err(PLT)
	mov	r0, r4
	b	.L804
.L800:
	mvn	r0, #106
	b	.L804
.L807:
	mov	r0, r9
	bl	_raw_spin_unlock(PLT)
	mvn	r0, #94
	b	.L804
.L809:
	.align	2
.L808:
	.word	rmnet_mux_response_complete-(.LPIC97+8)
	.word	rmnet_mux_command_complete-(.LPIC96+8)
	.word	.LC22-(.LPIC98+8)
	.fnend
	.size	rmnet_mux_setup, .-rmnet_mux_setup
	.align	2
	.type	gbam_reset_stats, %function
gbam_reset_stats:
	.fnstart
	@ args = 0, pretend = 0, frame = 0
	@ frame_needed = 0, uses_anonymous_args = 0
	ldr	r3, .L819
	strd	r4, [sp, #-24]!
	.save {r4, r5, r6, r7, r8, lr}
	strd	r6, [sp, #8]
	mov	r7, r2
	str	r8, [sp, #16]
	str	lr, [sp, #20]
.LPIC99:
	add	r3, pc, r3
	ldr	r2, [r3, #2224]
	cmp	r2, #0
	ble	.L815
	ldr	r4, [r3, #2228]
	cmp	r4, #0
	beq	.L815
	add	r5, r4, #4
	add	r6, r4, #8
	mov	r0, r5
	bl	_raw_spin_lock_irqsave(PLT)
	mov	r8, r0
	mov	r0, r6
	bl	_raw_spin_lock(PLT)
	mov	r3, #0
	mov	r0, r6
	str	r3, [r4, #264]
	str	r3, [r4, #260]
	str	r3, [r4, #240]
	str	r3, [r4, #244]
	str	r3, [r4, #248]
	str	r3, [r4, #268]
	str	r3, [r4, #272]
	str	r3, [r4, #276]
	str	r3, [r4, #280]
	bl	_raw_spin_unlock(PLT)
	mov	r0, r5
	mov	r1, r8
	bl	_raw_spin_unlock_irqrestore(PLT)
.L815:
	mov	r0, r7
	ldrd	r4, [sp]
	ldrd	r6, [sp, #8]
	ldr	r8, [sp, #16]
	add	sp, sp, #20
	ldr	pc, [sp], #4
.L820:
	.align	2
.L819:
	.word	.LANCHOR2-(.LPIC99+8)
	.fnend
	.size	gbam_reset_stats, .-gbam_reset_stats
	.align	2
	.type	hid_setup, %function
hid_setup:
	.fnstart
	@ args = 0, pretend = 0, frame = 0
	@ frame_needed = 0, uses_anonymous_args = 0
	strd	r4, [sp, #-24]!
	.save {r4, r5, r6, r7, r8, lr}
	movw	r4, #33030
	strd	r6, [sp, #8]
	str	r8, [sp, #16]
	str	lr, [sp, #20]
	ldr	r2, [r0, #20]
	ldrb	r3, [r1, #1]	@ zero_extendqisi2
	ldrb	r0, [r1]	@ zero_extendqisi2
	ldrh	r6, [r1, #2]	@ unaligned
	ldr	r7, [r2, #24]
	ldrh	r2, [r1, #6]	@ unaligned
	orr	r3, r3, r0, asl #8
	cmp	r3, r4
	ldr	r4, [r7, #4]
	beq	.L823
	movw	r1, #41217
	cmp	r3, r1
	bne	.L822
	ldr	r3, .L840
	ldr	r0, [r4]
.LPIC101:
	add	r3, pc, r3
	ldrh	r1, [r3, #123]	@ unaligned
	cmp	r1, r2
	movcs	r1, r2
	cmp	r1, #0
	uxth	r5, r1
	bne	.L839
.L825:
	ldrb	r3, [r4, #26]	@ zero_extendqisi2
	str	r5, [r4, #4]
	mov	r1, r4
	mov	r2, #32
	bfc	r3, #1, #1
	strb	r3, [r4, #26]
	ldr	r3, [r7]
	ldr	r0, [r3, #4]
	ldr	r3, [r0, #8]
	ldr	r3, [r3, #16]
	blx	r3
	subs	r4, r0, #0
	bge	.L837
	ldr	r0, [r7]
	mov	r2, r6
	ldr	r1, .L840+4
	add	r0, r0, #32
.LPIC106:
	add	r1, pc, r1
	bl	dev_err(PLT)
	b	.L837
.L823:
	mov	r3, r6, lsr #8
	cmp	r3, #33
	beq	.L826
	cmp	r3, #34
	beq	.L827
.L822:
	ldr	r0, [r7]
	mvn	r4, #94
	ldr	r1, .L840+8
	add	r0, r0, #32
.LPIC107:
	add	r1, pc, r1
	bl	dev_err(PLT)
.L837:
	mov	r0, r4
	ldrd	r6, [sp, #8]
	ldrd	r4, [sp]
	ldr	r8, [sp, #16]
	add	sp, sp, #20
	ldr	pc, [sp], #4
.L827:
	ldr	r3, .L840+12
	ldr	r1, .L840+16
	ldr	r0, [r4]
.LPIC104:
	add	r3, pc, r3
	ldrh	r3, [r3, #123]	@ unaligned
.LPIC105:
	add	r1, pc, r1
	cmp	r2, r3
	movcc	r5, r2
	movcs	r5, r3
	mov	r2, r5
	bl	memcpy(PLT)
	b	.L825
.L826:
	ldr	r1, .L840+20
	ldr	r0, [r4]
.LPIC102:
	add	r1, pc, r1
	ldrb	r3, [r1, #116]!	@ zero_extendqisi2
	cmp	r2, r3
	movcc	r5, r2
	movcs	r5, r3
	mov	r2, r5
	uxth	r5, r5
	bl	memcpy(PLT)
	b	.L825
.L839:
	bl	__memzero(PLT)
	b	.L825
.L841:
	.align	2
.L840:
	.word	.LANCHOR1-(.LPIC101+8)
	.word	.LC23-(.LPIC106+8)
	.word	.LC24-(.LPIC107+8)
	.word	.LANCHOR1-(.LPIC104+8)
	.word	.LANCHOR3-(.LPIC105+8)
	.word	.LANCHOR1-(.LPIC102+8)
	.fnend
	.size	hid_setup, .-hid_setup
	.align	2
	.type	do_mode_sense, %function
do_mode_sense:
	.fnstart
	@ args = 0, pretend = 0, frame = 0
	@ frame_needed = 0, uses_anonymous_args = 0
	strd	r4, [sp, #-32]!
	.save {r4, r5, r6, r7, r8, r9, r10, lr}
	strd	r6, [sp, #8]
	strd	r8, [sp, #16]
	str	r10, [sp, #24]
	str	lr, [sp, #28]
	ldrb	r3, [r0, #77]	@ zero_extendqisi2
	ldr	r5, [r1]
	ldr	r7, [r0, #104]
	ldrb	r6, [r0, #76]	@ zero_extendqisi2
	tst	r3, #247
	bne	.L852
	ldrb	r1, [r0, #78]	@ zero_extendqisi2
	mov	r8, r1, lsr #6
	and	r10, r1, #63
	cmp	r8, #3
	moveq	r3, #14592
	mvneq	r0, #21
	movteq	r3, 5
	streq	r3, [r7, #28]
	beq	.L844
	mov	r0, r5
	mov	r1, #8
	bl	__memzero(PLT)
	cmp	r6, #26
	sub	r2, r10, #63
	ldrb	r3, [r7, #24]	@ zero_extendqisi2
	clz	r2, r2
	mov	r2, r2, lsr #5
	beq	.L860
	and	r3, r3, #2
	add	r4, r5, #8
	cmp	r3, #0
	movw	r9, #65535
	movne	r3, #128
	moveq	r3, #0
	strb	r3, [r5, #3]
.L848:
	cmp	r10, #8
	movne	r3, r2
	orreq	r3, r2, #1
	cmp	r3, #0
	bne	.L850
.L852:
	mov	r3, #9216
	mvn	r0, #21
	movt	r3, 5
	str	r3, [r7, #28]
.L844:
	ldrd	r4, [sp]
	ldrd	r6, [sp, #8]
	ldrd	r8, [sp, #16]
	ldr	r10, [sp, #24]
	add	sp, sp, #28
	ldr	pc, [sp], #4
.L850:
	mov	r3, #10
	mov	r2, #8
	mov	r1, r3
	add	r0, r4, #2
	strb	r2, [r4]
	strb	r3, [r4, #1]
	bl	__memzero(PLT)
	cmp	r8, #1
	beq	.L851
	mvn	r3, #0
	mov	r2, #4
	strb	r3, [r4, #4]
	strb	r2, [r4, #2]
	strb	r3, [r4, #5]
	strb	r3, [r4, #8]
	strb	r3, [r4, #9]
	strb	r3, [r4, #10]
	strb	r3, [r4, #11]
.L851:
	add	r4, r4, #12
	rsb	r0, r5, r4
	cmp	r9, r0
	blt	.L852
	cmp	r6, #26
	subeq	r3, r0, #1
	streqb	r3, [r5]
	beq	.L844
	sub	r3, r0, #2
	uxth	r3, r3
	mov	r2, r3, lsr #8
	strb	r3, [r5, #1]
	strb	r2, [r5]
	b	.L844
.L860:
	and	r3, r3, #2
	add	r4, r5, #4
	cmp	r3, #0
	mov	r9, #255
	movne	r3, #128
	moveq	r3, #0
	strb	r3, [r5, #2]
	b	.L848
	.fnend
	.size	do_mode_sense, .-do_mode_sense
	.align	2
	.global	usb_rmnet_mux_ctrl_open
	.type	usb_rmnet_mux_ctrl_open, %function
usb_rmnet_mux_ctrl_open:
	.fnstart
	@ args = 0, pretend = 0, frame = 0
	@ frame_needed = 0, uses_anonymous_args = 0
	ldr	r3, .L866
	strd	r4, [sp, #-24]!
	.save {r4, r5, r6, r7, r8, lr}
	strd	r6, [sp, #8]
	mov	r7, r1
	str	r8, [sp, #16]
	str	lr, [sp, #20]
.LPIC108:
	add	r3, pc, r3
	ldr	r5, [r3, #2312]
	add	r6, r5, #356
	mov	r0, r6
	bl	_raw_spin_lock_irqsave(PLT)
	ldr	r4, [r5, #344]
	mov	r1, r0
	cmp	r4, #0
	bne	.L865
	mov	r3, #1
	mov	r0, r6
	str	r3, [r5, #344]
	str	r5, [r7, #124]
	bl	_raw_spin_unlock_irqrestore(PLT)
	mov	r0, r4
.L863:
	ldrd	r4, [sp]
	ldrd	r6, [sp, #8]
	ldr	r8, [sp, #16]
	add	sp, sp, #20
	ldr	pc, [sp], #4
.L865:
	mov	r0, r6
	bl	_raw_spin_unlock_irqrestore(PLT)
	ldr	r1, .L866+4
	ldr	r0, .L866+8
.LPIC110:
	add	r1, pc, r1
.LPIC109:
	add	r0, pc, r0
	add	r1, r1, #36
	bl	printk(PLT)
	mvn	r0, #15
	b	.L863
.L867:
	.align	2
.L866:
	.word	.LANCHOR2-(.LPIC108+8)
	.word	.LANCHOR3-(.LPIC110+8)
	.word	.LC25-(.LPIC109+8)
	.fnend
	.size	usb_rmnet_mux_ctrl_open, .-usb_rmnet_mux_ctrl_open
	.align	2
	.type	audio_setup, %function
audio_setup:
	.fnstart
	@ args = 0, pretend = 0, frame = 0
	@ frame_needed = 0, uses_anonymous_args = 0
	.save {r4, lr}
	str	r4, [sp, #-8]!
	str	lr, [sp, #4]
	ldr	r3, [r0, #20]
	ldrb	r2, [r1]	@ zero_extendqisi2
	ldr	r0, [r3, #24]
	cmp	r2, #34
	ldr	r3, [r0, #4]
	beq	.L870
	cmp	r2, #162
	beq	.L871
.L879:
	mvn	r4, #94
.L881:
	mov	r0, r4
	ldr	r4, [sp]
	add	sp, sp, #4
	ldr	pc, [sp], #4
.L871:
	ldrh	r2, [r1, #2]	@ unaligned
	ldr	ip, [r3]
	cmp	r2, #256
	bne	.L879
	ldrb	r2, [r1, #1]	@ zero_extendqisi2
	sub	r2, r2, #129
	cmp	r2, #3
	bhi	.L879
	mov	r4, #68
	mvn	lr, #83
	mov	r1, #0
	mov	r2, #3
	strb	r4, [ip]
	strb	lr, [ip, #1]
	strb	r1, [ip, #2]
.L873:
	ldrb	lr, [r3, #26]	@ zero_extendqisi2
	str	r2, [r3, #4]
	mov	r1, r3
	ldr	ip, .L883
	mov	r2, #32
	bfc	lr, #1, #1
.LPIC112:
	add	ip, pc, ip
	strb	lr, [r3, #26]
	str	ip, [r3, #28]
	ldr	r3, [r0]
	ldr	r0, [r3, #4]
	ldr	r3, [r0, #8]
	ldr	r3, [r3, #16]
	blx	r3
	subs	r4, r0, #0
	bge	.L881
	ldr	r0, .L883+4
	mov	r1, r4
.LPIC111:
	add	r0, pc, r0
	bl	printk(PLT)
	b	.L881
.L870:
	ldrb	ip, [r1, #1]	@ zero_extendqisi2
	ldrh	r2, [r1, #6]	@ unaligned
	sub	ip, ip, #1
	cmp	ip, #3
	bhi	.L879
	b	.L873
.L884:
	.align	2
.L883:
	.word	audio_control_complete-(.LPIC112+8)
	.word	.LC26-(.LPIC111+8)
	.fnend
	.size	audio_setup, .-audio_setup
	.align	2
	.type	gsmd_start_rx, %function
gsmd_start_rx:
	.fnstart
	@ args = 0, pretend = 0, frame = 8
	@ frame_needed = 0, uses_anonymous_args = 0
	cmp	r0, #0
	beq	.L899
	strd	r4, [sp, #-36]!
	.save {r4, r5, r6, r7, r8, r9, r10, fp, lr}
	add	r5, r0, #4
	strd	r10, [sp, #24]
	mov	fp, r0
	mov	r0, r5
	strd	r6, [sp, #8]
	strd	r8, [sp, #16]
	str	lr, [sp, #32]
	.pad #12
	sub	sp, sp, #12
	bl	_raw_spin_lock_irqsave(PLT)
	ldr	r3, [fp, #68]
	mov	ip, r0
	cmp	r3, #0
	beq	.L887
	ldr	r6, [r3, #84]
	add	r7, fp, #12
	mov	r10, #256
	mov	r9, #512
	b	.L888
.L901:
	ldr	r4, [fp, #12]
	cmp	r7, r4
	beq	.L887
	ldrd	r2, [r4]
	str	r3, [r2, #4]
	str	r2, [r3]
	mov	r3, #2048
	str	r10, [r4]
	str	r3, [r4, #-32]
	str	r9, [r4, #4]
	bl	_raw_spin_unlock_irqrestore(PLT)
	ldr	r3, [r6, #8]
	sub	r1, r4, #36
	mov	r2, #208
	mov	r0, r6
	ldr	r3, [r3, #16]
	blx	r3
	mov	r8, r0
	mov	r0, r5
	bl	_raw_spin_lock_irqsave(PLT)
	cmp	r8, #0
	mov	ip, r0
	bne	.L900
.L888:
	ldr	r3, [fp, #72]
	mov	r1, ip
	mov	r0, r5
	ldr	r3, [r3, #8]
	tst	r3, #1
	bne	.L901
.L887:
	mov	r0, r5
	mov	r1, ip
	add	sp, sp, #12
	@ sp needed
	ldrd	r4, [sp]
	ldrd	r6, [sp, #8]
	ldrd	r8, [sp, #16]
	ldrd	r10, [sp, #24]
	ldr	lr, [sp, #32]
	add	sp, sp, #36
	b	_raw_spin_unlock_irqrestore(PLT)
.L900:
	ldr	r1, .L902
	str	r0, [sp, #4]
	mov	r2, fp
	ldr	r0, .L902+4
	ldr	r3, [fp]
.LPIC116:
	add	r1, pc, r1
.LPIC115:
	add	r0, pc, r0
	add	r1, r1, #60
	bl	printk(PLT)
	ldr	r3, [fp, #16]
	str	r4, [fp, #16]
	ldr	ip, [sp, #4]
	str	r7, [r4]
	str	r3, [r4, #4]
	str	r4, [r3]
	b	.L887
.L899:
	ldr	r1, .L902+8
	ldr	r0, .L902+12
.LPIC114:
	add	r1, pc, r1
.LPIC113:
	add	r0, pc, r0
	add	r1, r1, #60
	b	printk(PLT)
.L903:
	.align	2
.L902:
	.word	.LANCHOR3-(.LPIC116+8)
	.word	.LC28-(.LPIC115+8)
	.word	.LANCHOR3-(.LPIC114+8)
	.word	.LC27-(.LPIC113+8)
	.fnend
	.size	gsmd_start_rx, .-gsmd_start_rx
	.align	2
	.type	gbam_stop, %function
gbam_stop:
	.fnstart
	@ args = 0, pretend = 0, frame = 0
	@ frame_needed = 0, uses_anonymous_args = 0
	cmp	r1, #0
	strd	r4, [sp, #-16]!
	.save {r4, r5, r6, lr}
	mov	r4, r0
	str	r6, [sp, #8]
	str	lr, [sp, #12]
	beq	.L918
	add	r5, r0, #8
	mov	r0, r5
	bl	_raw_spin_lock(PLT)
	ldr	r3, [r4, #12]
	cmp	r3, #0
	beq	.L919
	ldr	r0, [r3, #76]
	ldr	r1, [r4, #116]
	ldr	r3, [r0, #8]
	ldr	r3, [r3, #20]
	blx	r3
	cmp	r0, #0
	bne	.L920
.L909:
	mov	r0, r5
	ldr	r6, [sp, #8]
	ldrd	r4, [sp]
	ldr	lr, [sp, #12]
	add	sp, sp, #16
	b	_raw_spin_unlock(PLT)
.L918:
	add	r5, r0, #4
	mov	r0, r5
	bl	_raw_spin_lock(PLT)
	ldr	r3, [r4, #12]
	cmp	r3, #0
	beq	.L921
	ldr	r0, [r3, #80]
	ldr	r1, [r4, #112]
	ldr	r3, [r0, #8]
	ldr	r3, [r3, #20]
	blx	r3
	cmp	r0, #0
	beq	.L909
	ldr	r1, .L922
	mov	r2, r0
	ldr	r0, .L922+4
.LPIC120:
	add	r1, pc, r1
	add	r1, r1, #76
.LPIC119:
	add	r0, pc, r0
	bl	printk(PLT)
	b	.L909
.L920:
	ldr	r1, .L922+8
	mov	r2, r0
	ldr	r0, .L922+12
.LPIC124:
	add	r1, pc, r1
	add	r1, r1, #100
.LPIC123:
	add	r0, pc, r0
	bl	printk(PLT)
	b	.L909
.L919:
	mov	r0, r5
	bl	_raw_spin_unlock(PLT)
	ldr	r1, .L922+16
	ldr	r0, .L922+20
.LPIC122:
	add	r1, pc, r1
.LPIC121:
	add	r0, pc, r0
	add	r1, r1, #100
.L917:
	ldrd	r4, [sp]
	ldr	r6, [sp, #8]
	ldr	lr, [sp, #12]
	add	sp, sp, #16
	b	printk(PLT)
.L921:
	mov	r0, r5
	bl	_raw_spin_unlock(PLT)
	ldr	r1, .L922+24
	ldr	r0, .L922+28
.LPIC118:
	add	r1, pc, r1
.LPIC117:
	add	r0, pc, r0
	add	r1, r1, #76
	b	.L917
.L923:
	.align	2
.L922:
	.word	.LANCHOR3-(.LPIC120+8)
	.word	.LC30-(.LPIC119+8)
	.word	.LANCHOR3-(.LPIC124+8)
	.word	.LC30-(.LPIC123+8)
	.word	.LANCHOR3-(.LPIC122+8)
	.word	.LC29-(.LPIC121+8)
	.word	.LANCHOR3-(.LPIC118+8)
	.word	.LC29-(.LPIC117+8)
	.fnend
	.size	gbam_stop, .-gbam_stop
	.align	2
	.type	ghsic_send_cpkt_tomodem, %function
ghsic_send_cpkt_tomodem:
	.fnstart
	@ args = 0, pretend = 0, frame = 0
	@ frame_needed = 0, uses_anonymous_args = 0
	ldr	r3, .L934
	strd	r4, [sp, #-24]!
	.save {r4, r5, r6, r7, r8, lr}
	mov	r5, r2
	strd	r6, [sp, #8]
	str	r8, [sp, #16]
	str	lr, [sp, #20]
.LPIC125:
	add	r3, pc, r3
	ldr	r2, [r3, #1036]
	cmp	r0, r2
	bcs	.L931
	mov	r2, #104
	mla	r0, r2, r0, r3
	ldr	r4, [r0, #1040]
	cmp	r4, #0
	beq	.L932
	mov	r6, r1
	mov	r0, r5
	mov	r1, #32
	bl	__kmalloc(PLT)
	subs	r7, r0, #0
	beq	.L929
	mov	r2, r5
	mov	r1, r6
	bl	memcpy(PLT)
	ldr	r2, [r4, #84]
	ands	r5, r2, #1
	beq	.L933
	ldr	r3, [r4, #96]
	mov	r5, #0
	add	r3, r3, #1
	str	r3, [r4, #96]
.L926:
	mov	r0, r5
	ldrd	r6, [sp, #8]
	ldrd	r4, [sp]
	ldr	r8, [sp, #16]
	add	sp, sp, #20
	ldr	pc, [sp], #4
.L933:
	ldr	r3, [r4, #104]
	mov	r0, r7
	add	r3, r3, #1
	str	r3, [r4, #104]
	bl	kfree(PLT)
	b	.L926
.L929:
	mvn	r5, #11
	b	.L926
.L932:
	ldr	r1, .L934+4
	mvn	r5, #18
	ldr	r0, .L934+8
.LPIC130:
	add	r1, pc, r1
	add	r1, r1, #124
.LPIC129:
	add	r0, pc, r0
	bl	printk(PLT)
	b	.L926
.L931:
	ldr	r1, .L934+12
	mov	r2, r0
	mvn	r5, #18
	ldr	r0, .L934+16
.LPIC127:
	add	r1, pc, r1
	add	r1, r1, #124
.LPIC126:
	add	r0, pc, r0
	bl	printk(PLT)
	b	.L926
.L935:
	.align	2
.L934:
	.word	.LANCHOR2-(.LPIC125+8)
	.word	.LANCHOR3-(.LPIC130+8)
	.word	.LC27-(.LPIC129+8)
	.word	.LANCHOR3-(.LPIC127+8)
	.word	.LC31-(.LPIC126+8)
	.fnend
	.size	ghsic_send_cpkt_tomodem, .-ghsic_send_cpkt_tomodem
	.align	2
	.type	ecm_qc_setup, %function
ecm_qc_setup:
	.fnstart
	@ args = 0, pretend = 0, frame = 0
	@ frame_needed = 0, uses_anonymous_args = 0
	strd	r4, [sp, #-12]!
	.save {r4, r5, lr}
	movw	r2, #8515
	str	lr, [sp, #8]
	ldrb	ip, [r1]	@ zero_extendqisi2
	.pad #12
	sub	sp, sp, #12
	ldr	lr, [r0, #20]
	ldrb	r3, [r1, #1]	@ zero_extendqisi2
	ldrh	r4, [r1, #4]	@ unaligned
	ldrh	r5, [r1, #2]	@ unaligned
	ldr	lr, [lr, #24]
	orr	r3, r3, ip, asl #8
	ldrh	ip, [r1, #6]	@ unaligned
	cmp	r3, r2
	ldr	r3, [lr, #4]
	bne	.L941
	cmp	ip, #0
	beq	.L944
.L941:
	mvn	r5, #94
.L937:
	mov	r0, r5
	add	sp, sp, #12
	@ sp needed
	ldrd	r4, [sp]
	add	sp, sp, #8
	ldr	pc, [sp], #4
.L944:
	ldrb	r2, [r0, #112]	@ zero_extendqisi2
	cmp	r2, r4
	bne	.L941
	strh	r5, [r0, #90]	@ movhi
	ldrb	r0, [r3, #26]	@ zero_extendqisi2
	mov	r4, r1
	str	ip, [r3, #4]
	mov	r1, r3
	mov	r2, #32
	bfi	r0, ip, #1, #1
	strb	r0, [r3, #26]
	ldr	r3, [lr]
	ldr	r0, [r3, #4]
	ldr	r3, [r0, #8]
	ldr	r3, [r3, #16]
	blx	r3
	subs	r5, r0, #0
	bge	.L937
	ldr	r1, .L945
	str	r5, [sp]
	ldr	r0, .L945+4
	ldrb	r2, [r4]	@ zero_extendqisi2
	ldrb	r3, [r4, #1]	@ zero_extendqisi2
.LPIC132:
	add	r1, pc, r1
	add	r1, r1, #148
.LPIC131:
	add	r0, pc, r0
	bl	printk(PLT)
	b	.L937
.L946:
	.align	2
.L945:
	.word	.LANCHOR3-(.LPIC132+8)
	.word	.LC32-(.LPIC131+8)
	.fnend
	.size	ecm_qc_setup, .-ecm_qc_setup
	.align	2
	.type	mbim_ep0out_complete, %function
mbim_ep0out_complete:
	.fnstart
	@ args = 0, pretend = 0, frame = 0
	@ frame_needed = 0, uses_anonymous_args = 0
	strd	r4, [sp, #-16]!
	.save {r4, r5, r6, lr}
	mov	r3, #0
	mov	r5, r0
	str	r6, [sp, #8]
	str	lr, [sp, #12]
	ldr	r2, [r1, #44]
	ldr	r4, [r1, #32]
	str	r3, [r1, #32]
	cmp	r2, r3
	bne	.L948
	ldr	r3, [r1, #48]
	ldr	r0, [r1, #4]
	cmp	r3, r0
	bne	.L948
	cmp	r3, #4
	beq	.L960
	cmp	r3, #8
	bne	.L954
	ldr	r0, [r1]
	ldrb	r3, [r0, #2]	@ zero_extendqisi2
	ldrb	ip, [r0, #1]	@ zero_extendqisi2
	ldrb	r1, [r0]	@ zero_extendqisi2
	ldrb	r2, [r0, #3]	@ zero_extendqisi2
	mov	r3, r3, asl #16
	orr	r3, r3, ip, asl #8
	orr	r3, r3, r1
	orr	r2, r3, r2, asl #24
	cmp	r2, #2048
	bcc	.L955
	ldr	r3, .L961
.LPIC138:
	add	r3, pc, r3
	ldr	r3, [r3, #132]
	cmp	r3, r2
	bcc	.L955
	ldrb	r1, [r0, #5]	@ zero_extendqisi2
	ldrb	r3, [r0, #4]	@ zero_extendqisi2
	orr	r3, r3, r1, asl #8
	strh	r3, [r4, #220]	@ movhi
.L953:
	str	r2, [r4, #216]
	ldrd	r4, [sp]
	ldr	r6, [sp, #8]
	add	sp, sp, #12
	ldr	pc, [sp], #4
.L960:
	ldr	r2, [r1]
	ldrb	r3, [r2, #2]	@ zero_extendqisi2
	ldrb	r0, [r2, #1]	@ zero_extendqisi2
	ldrb	r1, [r2]	@ zero_extendqisi2
	ldrb	r2, [r2, #3]	@ zero_extendqisi2
	mov	r3, r3, asl #16
	orr	r3, r3, r0, asl #8
	orr	r3, r3, r1
	orr	r2, r3, r2, asl #24
	cmp	r2, #2048
	bcc	.L952
	ldr	r3, .L961+4
.LPIC135:
	add	r3, pc, r3
	ldr	r3, [r3, #132]
	cmp	r3, r2
	bcs	.L953
.L952:
	ldr	r1, .L961+8
	ldr	r0, .L961+12
.LPIC137:
	add	r1, pc, r1
.LPIC136:
	add	r0, pc, r0
	add	r1, r1, #164
	bl	printk(PLT)
.L950:
	ldr	r3, [r5, #8]
	mov	r0, r5
	mov	r1, #1
	ldr	r3, [r3, #24]
	blx	r3
	ldr	r1, .L961+16
	mov	r2, r4
	ldr	r0, .L961+20
	ldrd	r4, [sp]
	ldr	r6, [sp, #8]
.LPIC144:
	add	r1, pc, r1
	ldr	lr, [sp, #12]
	add	sp, sp, #16
.LPIC143:
	add	r0, pc, r0
	add	r1, r1, #164
	b	printk(PLT)
.L948:
	ldr	r1, .L961+24
	ldr	r0, .L961+28
.LPIC134:
	add	r1, pc, r1
	add	r1, r1, #164
.LPIC133:
	add	r0, pc, r0
	bl	printk(PLT)
	b	.L950
.L955:
	ldr	r1, .L961+32
	ldr	r0, .L961+36
.LPIC140:
	add	r1, pc, r1
	add	r1, r1, #164
.LPIC139:
	add	r0, pc, r0
	bl	printk(PLT)
	b	.L950
.L954:
	ldr	r1, .L961+40
	ldr	r0, .L961+44
.LPIC142:
	add	r1, pc, r1
	add	r1, r1, #164
.LPIC141:
	add	r0, pc, r0
	bl	printk(PLT)
	b	.L950
.L962:
	.align	2
.L961:
	.word	.LANCHOR1-(.LPIC138+8)
	.word	.LANCHOR1-(.LPIC135+8)
	.word	.LANCHOR3-(.LPIC137+8)
	.word	.LC34-(.LPIC136+8)
	.word	.LANCHOR3-(.LPIC144+8)
	.word	.LC36-(.LPIC143+8)
	.word	.LANCHOR3-(.LPIC134+8)
	.word	.LC33-(.LPIC133+8)
	.word	.LANCHOR3-(.LPIC140+8)
	.word	.LC34-(.LPIC139+8)
	.word	.LANCHOR3-(.LPIC142+8)
	.word	.LC35-(.LPIC141+8)
	.fnend
	.size	mbim_ep0out_complete, .-mbim_ep0out_complete
	.align	2
	.type	bam_data_stop, %function
bam_data_stop:
	.fnstart
	@ args = 0, pretend = 0, frame = 0
	@ frame_needed = 0, uses_anonymous_args = 0
	cmp	r1, #0
	.save {r4, lr}
	str	r4, [sp, #-8]!
	str	lr, [sp, #4]
	ldr	r3, [r0, #4]
	beq	.L979
	cmp	r3, #0
	beq	.L963
	ldr	r3, [r3, #8]
	ldr	r1, [r0, #40]
	ldr	r2, [r3, #8]
	mov	r0, r3
	ldr	r3, [r2, #20]
	blx	r3
	cmp	r0, #0
	bne	.L980
.L963:
	ldr	r4, [sp]
	add	sp, sp, #4
	ldr	pc, [sp], #4
.L979:
	cmp	r3, #0
	beq	.L963
	ldr	r3, [r3, #12]
	ldr	r1, [r0, #36]
	ldr	r2, [r3, #8]
	mov	r0, r3
	ldr	r3, [r2, #20]
	blx	r3
	cmp	r0, #0
	beq	.L963
	ldr	r1, .L981
	mov	r3, r0
	ldr	r0, .L981+4
.LPIC146:
	add	r1, pc, r1
.LPIC145:
	add	r0, pc, r0
	add	r1, r1, #188
	b	.L978
.L980:
	ldr	r1, .L981+8
	mov	r3, r0
	ldr	r0, .L981+12
.LPIC149:
	add	r1, pc, r1
.LPIC148:
	add	r0, pc, r0
	add	r1, r1, #216
.L978:
	ldr	r4, [sp]
	mov	r2, r1
	ldr	lr, [sp, #4]
	add	sp, sp, #8
	b	printk(PLT)
.L982:
	.align	2
.L981:
	.word	.LANCHOR3-(.LPIC146+8)
	.word	.LC37-(.LPIC145+8)
	.word	.LANCHOR3-(.LPIC149+8)
	.word	.LC37-(.LPIC148+8)
	.fnend
	.size	bam_data_stop, .-bam_data_stop
	.align	2
	.type	rndis_qc_response_complete, %function
rndis_qc_response_complete:
	.fnstart
	@ args = 0, pretend = 0, frame = 0
	@ frame_needed = 0, uses_anonymous_args = 0
	strd	r4, [sp, #-16]!
	.save {r4, r5, r6, lr}
	str	r6, [sp, #8]
	str	lr, [sp, #12]
	ldr	r5, [r1, #32]
	.pad #8
	sub	sp, sp, #8
	ldr	r3, [r1, #44]
	ldr	r4, [r5, #20]
	cmp	r4, #0
	beq	.L984
	ldr	r2, [r4, #24]
	cmp	r2, #0
	beq	.L984
	cmn	r3, #104
	beq	.L987
	cmp	r3, #0
	mov	r6, r0
	mov	r4, r1
	beq	.L988
	cmn	r3, #108
	beq	.L987
	ldr	r1, .L1013
	ldr	r2, [r0, #4]
	ldr	lr, [r4, #48]
	ldr	ip, [r4, #4]
	ldr	r0, .L1013+4
.LPIC155:
	add	r1, pc, r1
	add	r1, r1, #244
	str	lr, [sp]
	str	ip, [sp, #4]
.LPIC154:
	add	r0, pc, r0
	bl	printk(PLT)
.L988:
	ldr	r3, [r5, #148]
	cmp	r3, r6
	beq	.L1012
.L983:
	add	sp, sp, #8
	@ sp needed
	ldrd	r4, [sp]
	ldr	r6, [sp, #8]
	add	sp, sp, #12
	ldr	pc, [sp], #4
.L987:
	mov	r3, #0
	str	r3, [r5, #156]
	b	.L983
.L1012:
	add	r6, r5, #156
#APP
@ 99 "/home/ikke/Workspace/kernel_oneplus_onyx/arch/arm/include/asm/atomic.h" 1
	dmb
@ 0 "" 2
@ 101 "/home/ikke/Workspace/kernel_oneplus_onyx/arch/arm/include/asm/atomic.h" 1
	@ atomic_sub_return
1:	ldrex	r3, [r6]
	sub	r3, r3, #1
	strex	r2, r3, [r6]
	teq	r2, #0
	bne	1b
@ 0 "" 2
@ 111 "/home/ikke/Workspace/kernel_oneplus_onyx/arch/arm/include/asm/atomic.h" 1
	dmb
@ 0 "" 2
	cmp	r3, #0
	beq	.L983
	ldr	r0, [r5, #148]
	mov	r1, r4
	mov	r2, #32
	ldr	r3, [r0, #8]
	ldr	r3, [r3, #16]
	blx	r3
	cmp	r0, #0
	beq	.L983
#APP
@ 83 "/home/ikke/Workspace/kernel_oneplus_onyx/arch/arm/include/asm/atomic.h" 1
	@ atomic_sub
1:	ldrex	r3, [r6]
	sub	r3, r3, #1
	strex	r2, r3, [r6]
	teq	r2, #0
	bne	1b
@ 0 "" 2
	b	.L983
.L984:
	ldr	r1, .L1013+8
	ldr	r0, .L1013+12
.LPIC152:
	add	r1, pc, r1
	add	r1, r1, #244
.LPIC151:
	add	r0, pc, r0
	mov	r2, r1
	add	sp, sp, #8
	@ sp needed
	ldrd	r4, [sp]
	ldr	r6, [sp, #8]
	ldr	lr, [sp, #12]
	add	sp, sp, #16
	b	printk(PLT)
.L1014:
	.align	2
.L1013:
	.word	.LANCHOR3-(.LPIC155+8)
	.word	.LC39-(.LPIC154+8)
	.word	.LANCHOR3-(.LPIC152+8)
	.word	.LC38-(.LPIC151+8)
	.fnend
	.size	rndis_qc_response_complete, .-rndis_qc_response_complete
	.align	2
	.type	rndis_qc_response_available, %function
rndis_qc_response_available:
	.fnstart
	@ args = 0, pretend = 0, frame = 0
	@ frame_needed = 0, uses_anonymous_args = 0
	strd	r4, [sp, #-16]!
	.save {r4, r5, r6, lr}
	add	r5, r0, #156
	str	r6, [sp, #8]
	str	lr, [sp, #12]
	ldr	r1, [r0, #152]
	ldr	ip, [r1]
#APP
@ 61 "/home/ikke/Workspace/kernel_oneplus_onyx/arch/arm/include/asm/atomic.h" 1
	dmb
@ 0 "" 2
@ 63 "/home/ikke/Workspace/kernel_oneplus_onyx/arch/arm/include/asm/atomic.h" 1
	@ atomic_add_return
1:	ldrex	r3, [r5]
	add	r3, r3, #1
	strex	r2, r3, [r5]
	teq	r2, #0
	bne	1b
@ 0 "" 2
@ 73 "/home/ikke/Workspace/kernel_oneplus_onyx/arch/arm/include/asm/atomic.h" 1
	dmb
@ 0 "" 2
	cmp	r3, #1
	beq	.L1023
.L1015:
	ldrd	r4, [sp]
	ldr	r6, [sp, #8]
	add	sp, sp, #12
	ldr	pc, [sp], #4
.L1023:
	mov	r4, r0
	mov	r0, #0
	str	r3, [ip]
	mov	r2, #32
	str	r0, [ip, #4]
	ldr	r0, [r4, #148]
	ldr	r3, [r0, #8]
	ldr	r3, [r3, #16]
	blx	r3
	cmp	r0, #0
	beq	.L1015
#APP
@ 83 "/home/ikke/Workspace/kernel_oneplus_onyx/arch/arm/include/asm/atomic.h" 1
	@ atomic_sub
1:	ldrex	r3, [r5]
	sub	r3, r3, #1
	strex	r2, r3, [r5]
	teq	r2, #0
	bne	1b
@ 0 "" 2
	ldr	r1, .L1024
	mov	r2, r0
	ldr	r0, .L1024+4
	ldrd	r4, [sp]
	ldr	r6, [sp, #8]
.LPIC157:
	add	r1, pc, r1
	ldr	lr, [sp, #12]
	add	sp, sp, #16
.LPIC156:
	add	r0, pc, r0
	add	r1, r1, #272
	b	printk(PLT)
.L1025:
	.align	2
.L1024:
	.word	.LANCHOR3-(.LPIC157+8)
	.word	.LC40-(.LPIC156+8)
	.fnend
	.size	rndis_qc_response_available, .-rndis_qc_response_available
	.align	2
	.type	f_audio_buffer_alloc, %function
f_audio_buffer_alloc:
	.fnstart
	@ args = 0, pretend = 0, frame = 0
	@ frame_needed = 0, uses_anonymous_args = 0
	ldr	r3, .L1036
	strd	r4, [sp, #-16]!
	.save {r4, r5, r6, lr}
	mov	r5, r0
	str	r6, [sp, #8]
	str	lr, [sp, #12]
.LPIC163:
	ldr	r3, [pc, r3]		@ tls_load_dot_plus_eight
	ldr	r0, [r3, #24]
	cmp	r0, #0
	beq	.L1027
	movw	r1, #32800
	bl	kmem_cache_alloc(PLT)
	subs	r4, r0, #0
	beq	.L1034
.L1030:
	mov	r0, r5
	movw	r1, #32800
	bl	__kmalloc(PLT)
	cmp	r0, #0
	str	r0, [r4]
	movne	r0, r4
	beq	.L1035
.L1032:
	ldrd	r4, [sp]
	ldr	r6, [sp, #8]
	add	sp, sp, #12
	ldr	pc, [sp], #4
.L1027:
	mov	r4, #16
	b	.L1030
.L1035:
	ldr	r1, .L1036+4
	ldr	r0, .L1036+8
.LPIC162:
	add	r1, pc, r1
	add	r1, r1, #300
.LPIC161:
	add	r0, pc, r0
	bl	printk(PLT)
	mov	r0, r4
	bl	kfree(PLT)
	mvn	r0, #11
	b	.L1032
.L1034:
	ldr	r1, .L1036+12
	ldr	r0, .L1036+16
.LPIC160:
	add	r1, pc, r1
.LPIC159:
	add	r0, pc, r0
	add	r1, r1, #300
	bl	printk(PLT)
	mvn	r0, #11
	b	.L1032
.L1037:
	.align	2
.L1036:
	.word	kmalloc_caches(GOT_PREL)+(.-(.LPIC163+8))
	.word	.LANCHOR3-(.LPIC162+8)
	.word	.LC42-(.LPIC161+8)
	.word	.LANCHOR3-(.LPIC160+8)
	.word	.LC41-(.LPIC159+8)
	.fnend
	.size	f_audio_buffer_alloc, .-f_audio_buffer_alloc
	.align	2
	.type	f_audio_setup, %function
f_audio_setup:
	.fnstart
	@ args = 0, pretend = 0, frame = 8
	@ frame_needed = 0, uses_anonymous_args = 0
	strd	r4, [sp, #-24]!
	.save {r4, r5, r6, r7, r8, lr}
	strd	r6, [sp, #8]
	mov	r7, r0
	str	r8, [sp, #16]
	str	lr, [sp, #20]
	ldr	r3, [r0, #20]
	.pad #24
	sub	sp, sp, #24
	ldrb	r2, [r1]	@ zero_extendqisi2
	ldrh	r0, [r1, #4]	@ unaligned
	ldrh	ip, [r1, #2]	@ unaligned
	ldr	r5, [r3, #24]
	cmp	r2, #34
	ldrh	r6, [r1, #6]	@ unaligned
	ldr	r4, [r5, #4]
	beq	.L1040
	bls	.L1112
	cmp	r2, #161
	beq	.L1043
	cmp	r2, #162
	bne	.L1039
	ldr	r3, [r7, #252]!
	and	r0, r0, #127
	mov	ip, ip, lsr #8
	ldrb	r2, [r1, #1]	@ zero_extendqisi2
	cmp	r3, r7
	beq	.L1088
	ldrb	r1, [r3, #16]	@ zero_extendqisi2
	cmp	r1, r0
	beq	.L1078
.L1077:
	ldr	r3, [r3]
	cmp	r7, r3
	beq	.L1088
	ldrb	lr, [r3, #16]	@ zero_extendqisi2
	cmp	lr, r0
	bne	.L1077
.L1078:
	ldr	r7, [r3, #8]!
	cmp	r7, r3
	beq	.L1088
.L1083:
	ldrb	r1, [r7, #12]	@ zero_extendqisi2
	cmp	r1, ip
	beq	.L1082
	ldr	r7, [r7]
	cmp	r3, r7
	bne	.L1083
.L1088:
	ldr	r1, .L1116
	mvn	r4, #94
	ldr	r0, .L1116+4
.LPIC174:
	add	r1, pc, r1
	add	r1, r1, #348
.LPIC173:
	add	r0, pc, r0
	bl	printk(PLT)
	b	.L1093
.L1043:
	mov	r2, r7
	mvn	r8, #94
	ldrb	lr, [r1, #1]	@ zero_extendqisi2
	ldr	r3, [r2, #244]!
	mov	r0, r0, lsr #8
	str	r8, [sp, #20]
	cmp	r3, r2
	bne	.L1061
.L1055:
	ldr	r3, .L1116+8
	str	r7, [r4, #32]
	add	r1, sp, #20
	ldr	r0, [r4]
	mov	r2, r6
.LPIC165:
	add	r3, pc, r3
	str	r3, [r4, #28]
	bl	memcpy(PLT)
.L1085:
	ldrb	r3, [r4, #26]	@ zero_extendqisi2
	str	r6, [r4, #4]
	mov	r1, r4
	mov	r2, #32
	orr	r3, r3, #2
	strb	r3, [r4, #26]
	ldr	r3, [r5]
	ldr	r0, [r3, #4]
	ldr	r3, [r0, #8]
	ldr	r3, [r3, #16]
	blx	r3
	subs	r4, r0, #0
	blt	.L1113
.L1093:
	mov	r0, r4
	add	sp, sp, #24
	@ sp needed
	ldrd	r4, [sp]
	ldrd	r6, [sp, #8]
	ldr	r8, [sp, #16]
	add	sp, sp, #20
	ldr	pc, [sp], #4
.L1058:
	ldr	r3, [r3]
	cmp	r2, r3
	beq	.L1055
.L1061:
	ldrb	r1, [r3, #16]	@ zero_extendqisi2
	cmp	r1, r0
	bne	.L1058
	ldr	r0, [r3, #8]!
	cmp	r0, r3
	beq	.L1055
	mov	ip, ip, lsr #8
	b	.L1060
.L1059:
	ldr	r0, [r0]
	cmp	r3, r0
	beq	.L1055
.L1060:
	ldrb	r2, [r0, #12]	@ zero_extendqisi2
	cmp	r2, ip
	bne	.L1059
	ldr	r2, [r0, #40]
	cmp	r2, #0
	beq	.L1059
	and	r1, lr, #15
	blx	r2
	str	r0, [sp, #20]
	b	.L1055
.L1112:
	cmp	r2, #33
	bne	.L1039
	mov	r2, r7
	ldrb	lr, [r1, #1]	@ zero_extendqisi2
	mov	r0, r0, lsr #8
	ldr	r3, [r2, #244]!
	and	lr, lr, #15
	cmp	r3, r2
	bne	.L1053
.L1045:
	ldr	r3, .L1116+12
	strb	lr, [r7, #260]
	str	r7, [r4, #32]
.LPIC164:
	add	r3, pc, r3
	str	r3, [r4, #28]
	b	.L1085
.L1048:
	ldr	r3, [r3]
	cmp	r3, r2
	beq	.L1045
.L1053:
	ldrb	r1, [r3, #16]	@ zero_extendqisi2
	cmp	r1, r0
	bne	.L1048
	ldr	r0, [r3, #8]!
	cmp	r0, r3
	beq	.L1045
	ldrb	r2, [r0, #12]	@ zero_extendqisi2
	mov	ip, ip, lsr #8
	cmp	r2, ip
	bne	.L1051
	b	.L1049
.L1052:
	ldrb	r2, [r0, #12]	@ zero_extendqisi2
	cmp	r2, ip
	beq	.L1049
.L1051:
	ldr	r0, [r0]
	cmp	r0, r3
	bne	.L1052
	b	.L1045
.L1040:
	mov	r2, r7
	and	r0, r0, #127
	ldrb	lr, [r1, #1]	@ zero_extendqisi2
	ldr	r3, [r2, #252]!
	mov	ip, ip, lsr #8
	cmp	r3, r2
	beq	.L1088
	ldrb	r1, [r3, #16]	@ zero_extendqisi2
	cmp	r1, r0
	beq	.L1065
.L1114:
	ldr	r3, [r3]
	cmp	r2, r3
	beq	.L1088
	ldrb	r1, [r3, #16]	@ zero_extendqisi2
	cmp	r1, r0
	bne	.L1114
.L1065:
	ldr	r0, [r3, #8]!
	cmp	r0, r3
	beq	.L1088
	ldrb	r2, [r0, #12]	@ zero_extendqisi2
	cmp	r2, ip
	beq	.L1069
.L1115:
	ldr	r0, [r0]
	cmp	r0, r3
	beq	.L1088
	ldrb	r2, [r0, #12]	@ zero_extendqisi2
	cmp	r2, ip
	bne	.L1115
.L1069:
	ands	lr, lr, #15
	beq	.L1071
	cmp	lr, #4
	bls	.L1072
	cmp	lr, #5
	beq	.L1088
.L1071:
	ldr	r1, .L1116+16
	ldr	r0, .L1116+20
.LPIC168:
	add	r1, pc, r1
	add	r1, r1, #324
.LPIC167:
	add	r0, pc, r0
	bl	printk(PLT)
	b	.L1088
.L1039:
	ldrb	r3, [r1, #1]	@ zero_extendqisi2
	stmib	sp, {r0, r6}
	ldr	r1, .L1116+24
	str	ip, [sp]
	ldr	r0, .L1116+28
.LPIC170:
	add	r1, pc, r1
	add	r1, r1, #348
.LPIC169:
	add	r0, pc, r0
	bl	printk(PLT)
	b	.L1088
.L1082:
	and	r2, r2, #15
	sub	r3, r2, #1
	cmp	r3, #3
	bhi	.L1088
	add	r2, r2, #4
	add	r1, sp, #24
	ldr	r0, [r4]
	ldr	r3, [r7, r2, asl #2]
	mov	r2, r6
	str	r3, [r1, #-4]!
	bl	memcpy(PLT)
	b	.L1085
.L1072:
	ldr	r3, .L1116+32
	str	r0, [r7, #264]
	strb	lr, [r7, #260]
	str	r7, [r4, #32]
.LPIC166:
	add	r3, pc, r3
	str	r3, [r4, #28]
	b	.L1085
.L1049:
	str	r0, [r7, #264]
	b	.L1045
.L1113:
	ldr	r1, .L1116+36
	mov	r2, r4
	ldr	r0, .L1116+40
.LPIC172:
	add	r1, pc, r1
	add	r1, r1, #348
.LPIC171:
	add	r0, pc, r0
	bl	printk(PLT)
	b	.L1093
.L1117:
	.align	2
.L1116:
	.word	.LANCHOR3-(.LPIC174+8)
	.word	.LC46-(.LPIC173+8)
	.word	f_audio_complete-(.LPIC165+8)
	.word	f_audio_complete-(.LPIC164+8)
	.word	.LANCHOR3-(.LPIC168+8)
	.word	.LC43-(.LPIC167+8)
	.word	.LANCHOR3-(.LPIC170+8)
	.word	.LC44-(.LPIC169+8)
	.word	audio_set_endpoint_complete-(.LPIC166+8)
	.word	.LANCHOR3-(.LPIC172+8)
	.word	.LC45-(.LPIC171+8)
	.fnend
	.size	f_audio_setup, .-f_audio_setup
	.align	2
	.type	android_bind_config, %function
android_bind_config:
	.fnstart
	@ args = 0, pretend = 0, frame = 0
	@ frame_needed = 0, uses_anonymous_args = 0
	ldr	r1, .L1144
	strd	r4, [sp, #-24]!
	.save {r4, r5, r6, r7, r8, lr}
	strd	r6, [sp, #8]
	mov	r6, r0
	str	r8, [sp, #16]
	str	lr, [sp, #20]
	ldr	r0, [r0, #24]
.LPIC175:
	add	r1, pc, r1
	ldr	r3, [r1]
	cmp	r1, r3
	sub	r2, r3, #168
	bne	.L1122
	b	.L1119
.L1141:
	ldr	r3, [r2, #168]
	cmp	r1, r3
	sub	r2, r3, #168
	beq	.L1119
.L1122:
	ldr	r3, [r3, #-160]
	cmp	r0, r3
	bne	.L1141
.L1119:
	mov	r5, r6
	ldr	r4, [r5, #112]!
	cmp	r5, r4
	sub	r4, r4, #4
	beq	.L1131
.L1130:
	ldr	r0, [r4]
	mov	r1, r6
	ldr	r3, [r0, #40]
	blx	r3
	subs	r7, r0, #0
	bne	.L1142
	ldr	r4, [r4, #4]
	cmp	r5, r4
	sub	r4, r4, #4
	bne	.L1130
.L1131:
	mov	r0, #0
.L1139:
	ldrd	r4, [sp]
	ldrd	r6, [sp, #8]
	ldr	r8, [sp, #16]
	add	sp, sp, #20
	ldr	pc, [sp], #4
.L1142:
	ldr	r1, .L1144+4
	add	r8, r6, #36
	mov	r5, #256
	ldr	r3, [r4]
	mov	r4, #512
	ldr	r0, .L1144+8
.LPIC179:
	add	r1, pc, r1
	add	r1, r1, #364
	ldr	r3, [r3]
	mov	r2, r1
.LPIC178:
	add	r0, pc, r0
	bl	printk(PLT)
	b	.L1127
.L1128:
	ldrd	r2, [r1]
	str	r3, [r2, #4]
	str	r2, [r3]
	ldr	r3, [r1, #-36]
	str	r5, [r1]
	str	r4, [r1, #4]
	cmp	r3, #0
	bne	.L1143
.L1127:
	ldr	r1, [r6, #36]
	cmp	r1, r8
	bne	.L1128
	ldr	r3, [r6, #12]
	cmp	r3, #0
	beq	.L1129
	mov	r0, r6
	blx	r3
.L1129:
	mov	r0, r7
	b	.L1139
.L1143:
	sub	r1, r1, #64
	mov	r0, r6
	blx	r3
	b	.L1127
.L1145:
	.align	2
.L1144:
	.word	.LANCHOR2-(.LPIC175+8)
	.word	.LANCHOR3-(.LPIC179+8)
	.word	.LC47-(.LPIC178+8)
	.fnend
	.size	android_bind_config, .-android_bind_config
	.align	2
	.type	android_enable_function, %function
android_enable_function:
	.fnstart
	@ args = 0, pretend = 0, frame = 16
	@ frame_needed = 0, uses_anonymous_args = 0
	strd	r4, [sp, #-36]!
	.save {r4, r5, r6, r7, r8, r9, r10, fp, lr}
	ldr	r5, .L1161
	strd	r6, [sp, #8]
	mov	r7, r1
	strd	r10, [sp, #24]
	mov	r10, r2
	mov	fp, r0
	strd	r8, [sp, #16]
.LPIC182:
	add	r5, pc, r5
	str	lr, [sp, #32]
	.pad #20
	sub	sp, sp, #20
	add	r2, r5, #396
	ldr	r1, [r0, #8]
	ldr	r3, [r0, #4]
	str	r2, [sp, #12]
	ldr	r2, .L1161+4
	ldr	r6, [r0, #52]
	sub	r5, r3, #4
.LPIC181:
	add	r2, pc, r2
	str	r2, [sp, #8]
	ldr	r2, [r1]
	str	r2, [sp, #4]
.L1147:
	ldr	r4, [r5, #4]!
	mov	r0, r10
	cmp	r4, #0
	beq	.L1158
	ldr	r9, [r4]
	mov	r1, r9
	bl	strcmp(PLT)
	subs	r8, r0, #0
	bne	.L1147
	ldr	r1, [r4, #20]
	cmp	fp, r1
	cmpne	r1, #0
	bne	.L1159
	ldr	r3, .L1161+8
.LPIC186:
	ldr	r3, [pc, r3]		@ tls_load_dot_plus_eight
	ldr	r0, [r3, #24]
	cmp	r0, #0
	beq	.L1155
	movw	r1, #32976
	bl	kmem_cache_alloc(PLT)
	cmp	r0, #0
	beq	.L1160
.L1150:
	mov	r3, r0
	str	fp, [r4, #20]
	add	r1, r7, #112
	str	r4, [r3], #4
	ldr	r2, [r7, #116]
	str	r3, [r7, #116]
	stmib	r0, {r1, r2}
	str	r3, [r2]
	ldr	r5, [r6, #44]
	ldr	r7, [r4]
	cmp	r5, #0
	ble	.L1151
	mov	r3, r5, asl #3
	add	r4, r6, #11
	add	r5, r3, r5, asl #1
	add	r5, r5, #11
	add	r5, r6, r5
	b	.L1153
.L1152:
	cmp	r4, r5
	beq	.L1151
.L1153:
	mov	r1, r4
	mov	r0, r7
	bl	strcmp(PLT)
	cmp	r0, #0
	add	r4, r4, #10
	bne	.L1152
	ldr	r2, [sp, #4]
	mov	r3, #1
	mov	r8, r0
	strb	r3, [r2, #386]
.L1151:
	mov	r0, r8
	add	sp, sp, #20
	@ sp needed
	ldrd	r4, [sp]
	ldrd	r6, [sp, #8]
	ldrd	r8, [sp, #16]
	ldrd	r10, [sp, #24]
	add	sp, sp, #32
	ldr	pc, [sp], #4
.L1155:
	mov	r0, #16
	b	.L1150
.L1158:
	mvn	r8, #21
	b	.L1151
.L1159:
	mov	r2, r9
	ldrd	r0, [sp, #8]
	bl	printk(PLT)
	b	.L1147
.L1160:
	ldr	r1, .L1161+12
	mvn	r8, #11
	ldr	r0, .L1161+16
.LPIC185:
	add	r1, pc, r1
	add	r1, r1, #396
.LPIC184:
	add	r0, pc, r0
	bl	printk(PLT)
	b	.L1151
.L1162:
	.align	2
.L1161:
	.word	.LANCHOR3-(.LPIC182+8)
	.word	.LC48-(.LPIC181+8)
	.word	kmalloc_caches(GOT_PREL)+(.-(.LPIC186+8))
	.word	.LANCHOR3-(.LPIC185+8)
	.word	.LC49-(.LPIC184+8)
	.fnend
	.size	android_enable_function, .-android_enable_function
	.align	2
	.type	acc_complete_set_string, %function
acc_complete_set_string:
	.fnstart
	@ args = 0, pretend = 0, frame = 0
	@ frame_needed = 0, uses_anonymous_args = 0
	strd	r4, [sp, #-24]!
	.save {r4, r5, r6, r7, r8, lr}
	strd	r6, [sp, #8]
	str	r8, [sp, #16]
	str	lr, [sp, #20]
	ldr	r2, [r1, #44]
	ldr	r3, [r0]
	ldr	r5, [r1, #48]
	cmp	r2, #0
	bne	.L1179
	ldr	r2, [r3, #1632]
	cmp	r2, #5
	addls	pc, pc, r2, asl #2
	b	.L1165
.L1167:
	b	.L1166
	b	.L1168
	b	.L1169
	b	.L1170
	b	.L1171
	b	.L1172
	.p2align 1
.L1172:
	add	r7, r3, #1360
	add	r7, r7, #13
.L1173:
	cmp	r7, #0
	beq	.L1165
	add	r4, r3, #80
	mov	r6, r1
	mov	r0, r4
	bl	_raw_spin_lock_irqsave(PLT)
	cmp	r5, #255
	mov	r8, r0
	ldr	r1, [r6]
	movge	r5, #255
	mov	r0, r7
	mov	r2, r5
	bl	memcpy(PLT)
	mov	r3, #0
	mov	r0, r4
	mov	r1, r8
	strb	r3, [r7, r5]
	ldrd	r4, [sp]
	ldrd	r6, [sp, #8]
	ldr	r8, [sp, #16]
	ldr	lr, [sp, #20]
	add	sp, sp, #24
	b	_raw_spin_unlock_irqrestore(PLT)
.L1166:
	add	r7, r3, #93
	b	.L1173
.L1168:
	add	r7, r3, #348
	add	r7, r7, #1
	b	.L1173
.L1169:
	add	r7, r3, #604
	add	r7, r7, #1
	b	.L1173
.L1170:
	add	r7, r3, #860
	add	r7, r7, #1
	b	.L1173
.L1171:
	add	r7, r3, #1104
	add	r7, r7, #13
	b	.L1173
.L1179:
	ldr	r0, .L1180
	mov	r1, r2
.LPIC187:
	add	r0, pc, r0
.L1178:
	ldrd	r4, [sp]
	ldrd	r6, [sp, #8]
	ldr	r8, [sp, #16]
	ldr	lr, [sp, #20]
	add	sp, sp, #24
	b	printk(PLT)
.L1165:
	ldr	r0, .L1180+4
	mov	r1, r2
.LPIC188:
	add	r0, pc, r0
	b	.L1178
.L1181:
	.align	2
.L1180:
	.word	.LC50-(.LPIC187+8)
	.word	.LC51-(.LPIC188+8)
	.fnend
	.size	acc_complete_set_string, .-acc_complete_set_string
	.align	2
	.type	acc_release, %function
acc_release:
	.fnstart
	@ args = 0, pretend = 0, frame = 0
	@ frame_needed = 0, uses_anonymous_args = 0
	ldr	r0, .L1186
	.save {r4, lr}
	str	r4, [sp, #-8]!
	str	lr, [sp, #4]
.LPIC189:
	add	r0, pc, r0
	bl	printk(PLT)
	ldr	r3, .L1186+4
.LPIC190:
	add	r3, pc, r3
	ldr	r3, [r3, #2316]
	add	r3, r3, #1632
	add	r3, r3, #12
#APP
@ 37 "/home/ikke/Workspace/kernel_oneplus_onyx/arch/arm/include/asm/cmpxchg.h" 1
	dmb
@ 0 "" 2
	mov	r2, #0
#APP
@ 52 "/home/ikke/Workspace/kernel_oneplus_onyx/arch/arm/include/asm/cmpxchg.h" 1
	@	__xchg4
1:	ldrex	r1, [r3]
	strex	r0, r2, [r3]
	teq	r0, #0
	bne	1b
@ 0 "" 2
@ 98 "/home/ikke/Workspace/kernel_oneplus_onyx/arch/arm/include/asm/cmpxchg.h" 1
	dmb
@ 0 "" 2
	cmp	r1, r2
	beq	.L1185
.L1183:
	ldr	r3, .L1186+8
	mov	r0, #0
.LPIC192:
	add	r3, pc, r3
	ldr	r3, [r3, #2316]
	ldrb	r2, [r3, #92]	@ zero_extendqisi2
	bfc	r2, #1, #1
	strb	r2, [r3, #92]
	ldr	r4, [sp]
	add	sp, sp, #4
	ldr	pc, [sp], #4
.L1185:
	ldr	r0, .L1186+12
	movw	r1, #801
.LPIC191:
	add	r0, pc, r0
	bl	warn_slowpath_null(PLT)
	b	.L1183
.L1187:
	.align	2
.L1186:
	.word	.LC52-(.LPIC189+8)
	.word	.LANCHOR2-(.LPIC190+8)
	.word	.LANCHOR2-(.LPIC192+8)
	.word	.LC53-(.LPIC191+8)
	.fnend
	.size	acc_release, .-acc_release
	.align	2
	.type	acc_open, %function
acc_open:
	.fnstart
	@ args = 0, pretend = 0, frame = 0
	@ frame_needed = 0, uses_anonymous_args = 0
	ldr	r0, .L1192
	.save {r4, lr}
	str	r4, [sp, #-8]!
	mov	r4, r1
	str	lr, [sp, #4]
.LPIC193:
	add	r0, pc, r0
	bl	printk(PLT)
	ldr	ip, .L1192+4
.LPIC194:
	add	ip, pc, ip
	ldr	r3, [ip, #2316]
	add	r3, r3, #1632
	add	r3, r3, #12
#APP
@ 37 "/home/ikke/Workspace/kernel_oneplus_onyx/arch/arm/include/asm/cmpxchg.h" 1
	dmb
@ 0 "" 2
	mov	r0, #1
#APP
@ 52 "/home/ikke/Workspace/kernel_oneplus_onyx/arch/arm/include/asm/cmpxchg.h" 1
	@	__xchg4
1:	ldrex	r2, [r3]
	strex	r1, r0, [r3]
	teq	r1, #0
	bne	1b
@ 0 "" 2
@ 98 "/home/ikke/Workspace/kernel_oneplus_onyx/arch/arm/include/asm/cmpxchg.h" 1
	dmb
@ 0 "" 2
	cmp	r2, #0
	bne	.L1190
	ldr	r3, [ip, #2316]
	mov	r0, r2
	ldrb	ip, [r3, #92]	@ zero_extendqisi2
	bfi	ip, r2, #1, #1
	strb	ip, [r3, #92]
	str	r3, [r4, #124]
.L1189:
	ldr	r4, [sp]
	add	sp, sp, #4
	ldr	pc, [sp], #4
.L1190:
	mvn	r0, #15
	b	.L1189
.L1193:
	.align	2
.L1192:
	.word	.LC54-(.LPIC193+8)
	.word	.LANCHOR2-(.LPIC194+8)
	.fnend
	.size	acc_open, .-acc_open
	.align	2
	.type	rndis_qc_release_dev, %function
rndis_qc_release_dev:
	.fnstart
	@ args = 0, pretend = 0, frame = 0
	@ frame_needed = 0, uses_anonymous_args = 0
	ldr	r3, .L1196
	.save {r4, lr}
	str	r4, [sp, #-8]!
	ldr	r0, .L1196+4
	str	lr, [sp, #4]
	ldr	r4, [r1, #124]
.LPIC197:
	add	r3, pc, r3
	add	r1, r3, #420
.LPIC196:
	add	r0, pc, r0
	bl	printk(PLT)
	add	r3, r4, #144
#APP
@ 83 "/home/ikke/Workspace/kernel_oneplus_onyx/arch/arm/include/asm/atomic.h" 1
	@ atomic_sub
1:	ldrex	r2, [r3]
	sub	r2, r2, #1
	strex	r1, r2, [r3]
	teq	r1, #0
	bne	1b
@ 0 "" 2
	ldr	r4, [sp]
	add	sp, sp, #4
	mov	r0, #0
	ldr	pc, [sp], #4
.L1197:
	.align	2
.L1196:
	.word	.LANCHOR3-(.LPIC197+8)
	.word	.LC55-(.LPIC196+8)
	.fnend
	.size	rndis_qc_release_dev, .-rndis_qc_release_dev
	.align	2
	.type	mtp_release, %function
mtp_release:
	.fnstart
	@ args = 0, pretend = 0, frame = 0
	@ frame_needed = 0, uses_anonymous_args = 0
	ldr	r0, .L1200
	.save {r4, lr}
	str	r4, [sp, #-8]!
	str	lr, [sp, #4]
.LPIC198:
	add	r0, pc, r0
	bl	printk(PLT)
	ldr	r3, .L1200+4
.LPIC199:
	add	r3, pc, r3
	ldr	r3, [r3, #2320]
	add	r2, r3, #100
#APP
@ 83 "/home/ikke/Workspace/kernel_oneplus_onyx/arch/arm/include/asm/atomic.h" 1
	@ atomic_sub
1:	ldrex	r1, [r2]
	sub	r1, r1, #1
	strex	r0, r1, [r2]
	teq	r0, #0
	bne	1b
@ 0 "" 2
	ldr	r4, [sp]
	add	sp, sp, #4
	mov	r0, #0
	ldr	pc, [sp], #4
.L1201:
	.align	2
.L1200:
	.word	.LC56-(.LPIC198+8)
	.word	.LANCHOR2-(.LPIC199+8)
	.fnend
	.size	mtp_release, .-mtp_release
	.align	2
	.type	ccid_notify_complete, %function
ccid_notify_complete:
	.fnstart
	@ args = 0, pretend = 0, frame = 0
	@ frame_needed = 0, uses_anonymous_args = 0
	@ link register save eliminated.
	ldr	r1, [r1, #44]
	cmn	r1, #104
	beq	.L1202
	cmp	r1, #0
	beq	.L1202
	cmn	r1, #108
	beq	.L1202
	ldr	r0, .L1214
.LPIC200:
	add	r0, pc, r0
	b	printk(PLT)
.L1202:
	bx	lr
.L1215:
	.align	2
.L1214:
	.word	.LC57-(.LPIC200+8)
	.fnend
	.size	ccid_notify_complete, .-ccid_notify_complete
	.align	2
	.type	gps_setup, %function
gps_setup:
	.fnstart
	@ args = 0, pretend = 0, frame = 0
	@ frame_needed = 0, uses_anonymous_args = 0
	strd	r4, [sp, #-24]!
	.save {r4, r5, r6, r7, r8, lr}
	mov	r3, r0
	strd	r6, [sp, #8]
	str	r8, [sp, #16]
	str	lr, [sp, #20]
	ldr	ip, [r0, #112]
	ldr	r6, [r0, #120]
	ldrh	r2, [r1, #2]	@ unaligned
	ldrh	r5, [r1, #6]	@ unaligned
	cmp	ip, #0
	ldr	r4, [r6, #4]
	beq	.L1225
	ldrb	lr, [r1]	@ zero_extendqisi2
	movw	ip, #8482
	mov	r7, r0
	ldrb	r1, [r1, #1]	@ zero_extendqisi2
	orr	r1, r1, lr, asl #8
	cmp	r1, ip
	beq	.L1218
	movw	r0, #41217
	cmp	r1, r0
	beq	.L1219
	cmp	r1, #8448
	beq	.L1231
.L1227:
	mvn	r0, #94
.L1229:
	ldrd	r4, [sp]
	ldrd	r6, [sp, #8]
	ldr	r8, [sp, #16]
	add	sp, sp, #20
	ldr	pc, [sp], #4
.L1219:
	cmp	r2, #0
	bne	.L1227
	add	r8, r3, #124
	mov	r0, r8
	bl	_raw_spin_lock(PLT)
	mov	r3, r7
	ldr	r7, [r3, #136]!
	cmp	r7, r3
	beq	.L1232
	ldr	r3, [r7, #4]
	mov	ip, #256
	mov	r1, #512
	ldr	r2, [r7]
	mov	r0, r8
	mov	r8, r7
	str	r3, [r2, #4]
	str	r2, [r3]
	str	ip, [r7]
	str	r1, [r7, #4]
	bl	_raw_spin_unlock(PLT)
	ldr	r3, [r7, #-4]
	ldr	r1, [r7, #-8]
	ldr	r0, [r4]
	cmp	r5, r3
	movcc	r7, r5
	movcs	r7, r3
	mov	r2, r7
	bl	memcpy(PLT)
	ldr	r0, [r8, #-8]!
	bl	kfree(PLT)
	mov	r0, r8
	bl	kfree(PLT)
	cmp	r5, r7
	mov	r5, r7
	movle	r0, #0
	movgt	r0, #1
	b	.L1221
.L1231:
	ldr	r2, .L1233
	mov	r0, #0
	str	r3, [r4, #32]
.LPIC201:
	add	r2, pc, r2
	str	r2, [r4, #28]
.L1221:
	ldrb	r3, [r4, #26]	@ zero_extendqisi2
	str	r5, [r4, #4]
	mov	r1, r4
	mov	r2, #32
	bfi	r3, r0, #1, #1
	strb	r3, [r4, #26]
	ldr	r3, [r6]
	ldr	r0, [r3, #4]
	ldr	r3, [r0, #8]
	ldr	r3, [r3, #16]
	blx	r3
	subs	r4, r0, #0
	blt	.L1224
	mov	r0, r4
	b	.L1229
.L1218:
	ldr	ip, [r0, #92]
	cmp	ip, #0
	beq	.L1223
	ldrb	r1, [r0, #104]	@ zero_extendqisi2
	blx	ip
	adds	r0, r5, #0
	mov	r5, #0
	movne	r0, #1
	b	.L1221
.L1223:
	adds	r0, r5, #0
	mov	r5, ip
	movne	r0, #1
	b	.L1221
.L1224:
	ldr	r0, [r6]
	mov	r2, r4
	ldr	r1, .L1233+4
	add	r0, r0, #32
.LPIC204:
	add	r1, pc, r1
	bl	dev_err(PLT)
	mov	r0, r4
	b	.L1229
.L1225:
	mvn	r0, #106
	b	.L1229
.L1232:
	ldr	r1, .L1233+8
	ldr	r0, .L1233+12
.LPIC203:
	add	r1, pc, r1
	add	r1, r1, #444
.LPIC202:
	add	r0, pc, r0
	bl	printk(PLT)
	mov	r0, r8
	bl	_raw_spin_unlock(PLT)
	mvn	r0, #94
	b	.L1229
.L1234:
	.align	2
.L1233:
	.word	gps_cmd_complete-(.LPIC201+8)
	.word	.LC59-(.LPIC204+8)
	.word	.LANCHOR3-(.LPIC203+8)
	.word	.LC58-(.LPIC202+8)
	.fnend
	.size	gps_setup, .-gps_setup
	.align	2
	.type	gps_notify_complete, %function
gps_notify_complete:
	.fnstart
	@ args = 0, pretend = 0, frame = 0
	@ frame_needed = 0, uses_anonymous_args = 0
	strd	r4, [sp, #-24]!
	.save {r4, r5, r6, r7, r8, lr}
	strd	r6, [sp, #8]
	str	r8, [sp, #16]
	str	lr, [sp, #20]
	ldr	r3, [r1, #44]
	ldr	r5, [r1, #32]
	cmn	r3, #104
	beq	.L1237
	cmp	r3, #0
	mov	r4, r1
	beq	.L1238
	cmn	r3, #108
	beq	.L1237
	ldr	r0, .L1261
	mov	r1, r3
.LPIC205:
	add	r0, pc, r0
	bl	printk(PLT)
.L1238:
	ldr	r3, [r5, #116]
	cmp	r3, #0
	beq	.L1235
	add	r6, r5, #144
#APP
@ 99 "/home/ikke/Workspace/kernel_oneplus_onyx/arch/arm/include/asm/atomic.h" 1
	dmb
@ 0 "" 2
@ 101 "/home/ikke/Workspace/kernel_oneplus_onyx/arch/arm/include/asm/atomic.h" 1
	@ atomic_sub_return
1:	ldrex	r3, [r6]
	sub	r3, r3, #1
	strex	r2, r3, [r6]
	teq	r2, #0
	bne	1b
@ 0 "" 2
@ 111 "/home/ikke/Workspace/kernel_oneplus_onyx/arch/arm/include/asm/atomic.h" 1
	dmb
@ 0 "" 2
	cmp	r3, #0
	bne	.L1260
.L1235:
	ldrd	r4, [sp]
	ldrd	r6, [sp, #8]
	ldr	r8, [sp, #16]
	add	sp, sp, #20
	ldr	pc, [sp], #4
.L1237:
	mov	r3, #0
	str	r3, [r5, #144]
	b	.L1235
.L1260:
	ldr	r0, [r5, #128]
	mov	r1, r4
	mov	r2, #32
	ldr	r3, [r0, #8]
	ldr	r3, [r3, #16]
	blx	r3
	cmp	r0, #0
	beq	.L1235
	add	r4, r5, #124
	mov	r0, r4
	bl	_raw_spin_lock_irqsave(PLT)
	ldr	r3, [r5, #136]
	add	r2, r5, #136
	mov	r7, r0
	cmp	r3, r2
	beq	.L1242
#APP
@ 83 "/home/ikke/Workspace/kernel_oneplus_onyx/arch/arm/include/asm/atomic.h" 1
	@ atomic_sub
1:	ldrex	r2, [r6]
	sub	r2, r2, #1
	strex	r1, r2, [r6]
	teq	r1, #0
	bne	1b
@ 0 "" 2
	ldr	r0, [r3]
	mov	ip, #256
	mov	r1, #512
	ldr	r2, [r3, #4]
	mov	r5, r3
	str	r2, [r0, #4]
	str	r0, [r2]
	str	ip, [r3]
	str	r1, [r3, #4]
	ldr	r0, [r5, #-8]!
	bl	kfree(PLT)
	mov	r0, r5
	bl	kfree(PLT)
.L1242:
	mov	r0, r4
	mov	r1, r7
	ldrd	r4, [sp]
	ldrd	r6, [sp, #8]
	ldr	r8, [sp, #16]
	ldr	lr, [sp, #20]
	add	sp, sp, #24
	b	_raw_spin_unlock_irqrestore(PLT)
.L1262:
	.align	2
.L1261:
	.word	.LC60-(.LPIC205+8)
	.fnend
	.size	gps_notify_complete, .-gps_notify_complete
	.align	2
	.type	frmnet_setup, %function
frmnet_setup:
	.fnstart
	@ args = 0, pretend = 0, frame = 8
	@ frame_needed = 0, uses_anonymous_args = 0
	strd	r4, [sp, #-36]!
	.save {r4, r5, r6, r7, r8, r9, r10, fp, lr}
	str	lr, [sp, #32]
	mov	lr, r0
	strd	r6, [sp, #8]
	strd	r8, [sp, #16]
	strd	r10, [sp, #24]
	ldr	ip, [r0, #112]
	.pad #20
	sub	sp, sp, #20
	ldr	r7, [r0, #120]
	ldrh	r9, [r1, #4]	@ unaligned
	ldrh	r8, [r1, #2]	@ unaligned
	cmp	ip, #0
	ldrh	r6, [r1, #6]	@ unaligned
	ldr	r5, [r7, #4]
	beq	.L1272
	ldrb	r2, [r1]	@ zero_extendqisi2
	movw	r3, #8482
	mov	r4, r0
	ldrb	ip, [r1, #1]	@ zero_extendqisi2
	orr	ip, ip, r2, asl #8
	cmp	ip, r3
	beq	.L1265
	movw	r3, #41217
	cmp	ip, r3
	beq	.L1266
	cmp	ip, #8448
	beq	.L1278
.L1274:
	mvn	r0, #94
.L1276:
	add	sp, sp, #20
	@ sp needed
	ldrd	r4, [sp]
	ldrd	r6, [sp, #8]
	ldrd	r8, [sp, #16]
	ldrd	r10, [sp, #24]
	add	sp, sp, #32
	ldr	pc, [sp], #4
.L1266:
	cmp	r8, #0
	bne	.L1274
	add	fp, r0, #124
	str	r1, [sp, #12]
	mov	r0, fp
	bl	_raw_spin_lock(PLT)
	ldr	r10, [r4, #136]!
	ldr	r1, [sp, #12]
	cmp	r10, r4
	beq	.L1279
	ldr	r3, [r10, #4]
	mov	ip, #256
	mov	r1, #512
	ldr	r2, [r10]
	mov	r0, fp
	mov	r4, r10
	str	r3, [r2, #4]
	str	r2, [r3]
	str	ip, [r10]
	str	r1, [r10, #4]
	bl	_raw_spin_unlock(PLT)
	ldr	r3, [r10, #-4]
	ldr	r1, [r10, #-8]
	ldr	r0, [r5]
	cmp	r6, r3
	movcc	r8, r6
	movcs	r8, r3
	mov	r2, r8
	bl	memcpy(PLT)
	ldr	r0, [r4, #-8]!
	bl	kfree(PLT)
	mov	r0, r4
	bl	kfree(PLT)
	cmp	r6, r8
	mov	r6, r8
	movle	r4, #0
	movgt	r4, #1
	b	.L1268
.L1278:
	ldr	r3, .L1280
	mov	r4, #0
	str	r0, [r5, #32]
.LPIC206:
	add	r3, pc, r3
	str	r3, [r5, #28]
.L1268:
	ldrb	ip, [r5, #26]	@ zero_extendqisi2
	str	r6, [r5, #4]
	mov	r1, r5
	mov	r2, #32
	bfi	ip, r4, #1, #1
	strb	ip, [r5, #26]
	ldr	r3, [r7]
	ldr	r0, [r3, #4]
	ldr	r3, [r0, #8]
	ldr	r3, [r3, #16]
	blx	r3
	subs	r4, r0, #0
	blt	.L1271
	mov	r0, r4
	b	.L1276
.L1265:
	ldr	r3, [r0, #92]
	cmp	r3, #0
	beq	.L1270
	ldrb	lr, [r0, #108]	@ zero_extendqisi2
	mov	r2, r8
	ldr	ip, .L1280+4
	mov	r1, lr, asl #5
.LPIC208:
	add	ip, pc, ip
	sub	r1, r1, lr, asl #3
	add	ip, ip, r1
	ldrb	r1, [ip, #2336]	@ zero_extendqisi2
	blx	r3
	adds	r4, r6, #0
	mov	r6, #0
	movne	r4, #1
	b	.L1268
.L1270:
	adds	r4, r6, #0
	mov	r6, r3
	movne	r4, #1
	b	.L1268
.L1271:
	ldr	r0, [r7]
	mov	r2, r4
	ldr	r1, .L1280+8
	add	r0, r0, #32
.LPIC209:
	add	r1, pc, r1
	bl	dev_err(PLT)
	mov	r0, r4
	b	.L1276
.L1272:
	mvn	r0, #106
	b	.L1276
.L1279:
	ldrb	ip, [r1]	@ zero_extendqisi2
	mov	r3, r8
	str	r9, [sp]
	ldr	r0, .L1280+12
	ldrb	r2, [r1, #1]	@ zero_extendqisi2
	str	r6, [sp, #4]
	mov	r1, ip
.LPIC207:
	add	r0, pc, r0
	bl	printk(PLT)
	mov	r0, fp
	bl	_raw_spin_unlock(PLT)
	mvn	r0, #94
	b	.L1276
.L1281:
	.align	2
.L1280:
	.word	frmnet_cmd_complete-(.LPIC206+8)
	.word	.LANCHOR2-(.LPIC208+8)
	.word	.LC62-(.LPIC209+8)
	.word	.LC61-(.LPIC207+8)
	.fnend
	.size	frmnet_setup, .-frmnet_setup
	.align	2
	.type	frmnet_notify_complete, %function
frmnet_notify_complete:
	.fnstart
	@ args = 0, pretend = 0, frame = 0
	@ frame_needed = 0, uses_anonymous_args = 0
	strd	r4, [sp, #-24]!
	.save {r4, r5, r6, r7, r8, lr}
	mov	r5, r1
	strd	r6, [sp, #8]
	str	r8, [sp, #16]
	str	lr, [sp, #20]
	ldr	r1, [r1, #44]
	ldr	r4, [r5, #32]
	cmn	r1, #104
	beq	.L1284
	cmp	r1, #0
	beq	.L1285
	cmn	r1, #108
	beq	.L1284
	ldr	r0, .L1309
.LPIC210:
	add	r0, pc, r0
	bl	printk(PLT)
.L1285:
	ldr	r3, [r4, #116]
	cmp	r3, #0
	bne	.L1308
.L1282:
	ldrd	r4, [sp]
	ldrd	r6, [sp, #8]
	ldr	r8, [sp, #16]
	add	sp, sp, #20
	ldr	pc, [sp], #4
.L1308:
	add	r6, r4, #124
	mov	r0, r6
	bl	_raw_spin_lock_irqsave(PLT)
	ldr	r3, [r4, #144]
	mov	r1, r0
	cmp	r3, #0
	beq	.L1288
	sub	r3, r3, #1
	mov	r0, r6
	cmp	r3, #0
	str	r3, [r4, #144]
	beq	.L1307
	bl	_raw_spin_unlock_irqrestore(PLT)
	ldr	r0, [r4, #128]
	mov	r1, r5
	mov	r2, #32
	ldr	r3, [r0, #8]
	ldr	r3, [r3, #16]
	blx	r3
	cmp	r0, #0
	beq	.L1282
	mov	r0, r6
	bl	_raw_spin_lock_irqsave(PLT)
	mov	r2, r4
	mov	r7, r0
	ldr	r3, [r2, #136]!
	cmp	r3, r2
	beq	.L1291
	ldr	r2, [r4, #144]
	cmp	r2, #0
	beq	.L1292
	sub	r2, r2, #1
	mov	ip, #256
	mov	r0, #512
	mov	r5, r3
	str	r2, [r4, #144]
	ldmia	r3, {r1, r2}
	str	r2, [r1, #4]
	str	r1, [r2]
	str	ip, [r3]
	str	r0, [r3, #4]
	ldr	r0, [r5, #-8]!
	bl	kfree(PLT)
	mov	r0, r5
	bl	kfree(PLT)
.L1291:
	mov	r0, r6
	mov	r1, r7
	b	.L1307
.L1284:
	add	r5, r4, #124
	mov	r0, r5
	bl	_raw_spin_lock_irqsave(PLT)
	mov	r1, r0
	mov	r3, #0
	mov	r0, r5
	str	r3, [r4, #144]
.L1307:
	ldrd	r4, [sp]
	ldrd	r6, [sp, #8]
	ldr	r8, [sp, #16]
	ldr	lr, [sp, #20]
	add	sp, sp, #24
	b	_raw_spin_unlock_irqrestore(PLT)
.L1288:
	mov	r0, r6
	b	.L1307
.L1292:
	ldr	r1, .L1309+4
	ldr	r0, .L1309+8
.LPIC212:
	add	r1, pc, r1
	add	r1, r1, #456
.LPIC211:
	add	r0, pc, r0
	bl	printk(PLT)
	b	.L1291
.L1310:
	.align	2
.L1309:
	.word	.LC63-(.LPIC210+8)
	.word	.LANCHOR3-(.LPIC212+8)
	.word	.LC64-(.LPIC211+8)
	.fnend
	.size	frmnet_notify_complete, .-frmnet_notify_complete
	.align	2
	.type	mbim_function_ctrlrequest, %function
mbim_function_ctrlrequest:
	.fnstart
	@ args = 0, pretend = 0, frame = 0
	@ frame_needed = 0, uses_anonymous_args = 0
	strd	r4, [sp, #-24]!
	.save {r4, r5, r6, r7, r8, lr}
	strd	r6, [sp, #8]
	str	r8, [sp, #16]
	str	lr, [sp, #20]
	ldr	r0, [r1, #12]
	ldrh	ip, [r2, #4]	@ unaligned
	ldrh	lr, [r2, #2]	@ unaligned
	ldrh	r5, [r2, #6]	@ unaligned
	cmp	r0, #0
	bne	.L1326
	ldr	r3, .L1331
.LPIC213:
	add	r3, pc, r3
	ldrb	r3, [r3, #182]	@ zero_extendqisi2
	cmp	r3, #0
	beq	.L1326
	ldrb	r3, [r2]	@ zero_extendqisi2
	mov	r4, r1
	cmp	r3, #128
	beq	.L1329
	cmp	r3, #192
	beq	.L1330
.L1326:
	mvn	r5, #94
.L1327:
	mov	r0, r5
	ldrd	r6, [sp, #8]
	ldrd	r4, [sp]
	ldr	r8, [sp, #16]
	add	sp, sp, #20
	ldr	pc, [sp], #4
.L1330:
	ldrb	r3, [r2, #1]	@ zero_extendqisi2
	cmp	r3, #165
	cmpeq	ip, #4
	bne	.L1326
	cmp	r5, #39
	movls	r7, r0
	movls	r6, r5
	bls	.L1318
	mov	r6, #40
	cmp	r5, r6
	mov	r5, r6
	movle	r7, #0
	movgt	r7, #1
.L1318:
	ldr	r1, .L1331+4
	mov	r2, r6
	ldr	r3, [r4, #4]
.LPIC215:
	add	r1, pc, r1
	ldr	r0, [r3]
	add	r1, r1, #156
	bl	memcpy(PLT)
.L1316:
	ldr	r3, [r4, #4]
	mov	r2, #32
	ldrb	r1, [r3, #26]	@ zero_extendqisi2
	bfi	r1, r7, #1, #1
	strb	r1, [r3, #26]
	ldr	r3, [r4, #4]
	str	r6, [r3, #4]
	ldr	r3, [r4]
	ldr	r1, [r4, #4]
	ldr	r0, [r3, #4]
	ldr	r3, [r0, #8]
	ldr	r3, [r3, #16]
	blx	r3
	cmp	r0, #0
	bge	.L1327
	ldr	r1, .L1331+8
	mov	r2, r0
	ldr	r0, .L1331+12
.LPIC217:
	add	r1, pc, r1
	add	r1, r1, #480
.LPIC216:
	add	r0, pc, r0
	bl	printk(PLT)
	b	.L1327
.L1329:
	ldrb	r3, [r2, #1]	@ zero_extendqisi2
	cmp	r3, #6
	bne	.L1326
	mov	r3, lr, lsr #8
	cmp	r3, #3
	bne	.L1326
	uxtb	lr, lr
	cmp	lr, #238
	bne	.L1326
	cmp	r5, #17
	movls	r7, r0
	movls	r6, r5
	bls	.L1315
	mov	r6, #18
	cmp	r5, r6
	mov	r5, r6
	movle	r7, #0
	movgt	r7, #1
.L1315:
	ldr	r1, .L1331+16
	mov	r2, r6
	ldr	r3, [r4, #4]
.LPIC214:
	add	r1, pc, r1
	ldr	r0, [r3]
	add	r1, r1, #196
	bl	memcpy(PLT)
	b	.L1316
.L1332:
	.align	2
.L1331:
	.word	.LANCHOR1-(.LPIC213+8)
	.word	.LANCHOR1-(.LPIC215+8)
	.word	.LANCHOR3-(.LPIC217+8)
	.word	.LC65-(.LPIC216+8)
	.word	.LANCHOR1-(.LPIC214+8)
	.fnend
	.size	mbim_function_ctrlrequest, .-mbim_function_ctrlrequest
	.align	2
	.type	mbim_release, %function
mbim_release:
	.fnstart
	@ args = 0, pretend = 0, frame = 0
	@ frame_needed = 0, uses_anonymous_args = 0
	ldr	r1, .L1335
	.save {r4, lr}
	str	r4, [sp, #-8]!
	ldr	r0, .L1335+4
	str	lr, [sp, #4]
.LPIC219:
	add	r1, pc, r1
	add	r1, r1, #500
.LPIC218:
	add	r0, pc, r0
	bl	printk(PLT)
	ldr	r3, .L1335+8
.LPIC220:
	add	r3, pc, r3
	ldr	r3, [r3, #2396]
	add	r2, r3, #84
#APP
@ 83 "/home/ikke/Workspace/kernel_oneplus_onyx/arch/arm/include/asm/atomic.h" 1
	@ atomic_sub
1:	ldrex	r1, [r2]
	sub	r1, r1, #1
	strex	r0, r1, [r2]
	teq	r0, #0
	bne	1b
@ 0 "" 2
	ldr	r4, [sp]
	add	sp, sp, #4
	mov	r0, #0
	ldr	pc, [sp], #4
.L1336:
	.align	2
.L1335:
	.word	.LANCHOR3-(.LPIC219+8)
	.word	.LC66-(.LPIC218+8)
	.word	.LANCHOR2-(.LPIC220+8)
	.fnend
	.size	mbim_release, .-mbim_release
	.align	2
	.type	gsdio_open_work, %function
gsdio_open_work:
	.fnstart
	@ args = 0, pretend = 0, frame = 0
	@ frame_needed = 0, uses_anonymous_args = 0
	.save {lr}
	str	lr, [sp, #-4]!
	ldr	ip, [r0, #-4]
	sub	r2, r0, #124
	ldr	r1, .L1339
	.pad #12
	sub	sp, sp, #12
	ldr	r3, [r0, #-124]
	ldr	r0, .L1339+4
	ldr	ip, [ip]
.LPIC222:
	add	r1, pc, r1
	add	r1, r1, #516
.LPIC221:
	add	r0, pc, r0
	str	ip, [sp]
	bl	printk(PLT)
	add	sp, sp, #12
	@ sp needed
	ldr	pc, [sp], #4
.L1340:
	.align	2
.L1339:
	.word	.LANCHOR3-(.LPIC222+8)
	.word	.LC67-(.LPIC221+8)
	.fnend
	.size	gsdio_open_work, .-gsdio_open_work
	.align	2
	.type	remote_wakeup_show, %function
remote_wakeup_show:
	.fnstart
	@ args = 0, pretend = 0, frame = 0
	@ frame_needed = 0, uses_anonymous_args = 0
	.save {r4, lr}
	str	r4, [sp, #-8]!
	mov	r4, r2
	str	lr, [sp, #4]
	bl	dev_get_drvdata(PLT)
	ldr	r3, [r0, #164]
	cmp	r3, #0
	bne	.L1344
	ldr	r4, [sp]
	add	sp, sp, #4
	mov	r0, r3
	ldr	pc, [sp], #4
.L1344:
	ldr	r3, [r0, #156]
	mov	r1, #4096
	mov	r0, r4
	ldr	r2, .L1345
	ldr	r4, [sp]
	ldr	lr, [sp, #4]
	add	sp, sp, #8
	ldrb	r3, [r3, #-98]	@ zero_extendqisi2
.LPIC223:
	add	r2, pc, r2
	ubfx	r3, r3, #5, #1
	b	snprintf(PLT)
.L1346:
	.align	2
.L1345:
	.word	.LC68-(.LPIC223+8)
	.fnend
	.size	remote_wakeup_show, .-remote_wakeup_show
	.align	2
	.type	state_show, %function
state_show:
	.fnstart
	@ args = 0, pretend = 0, frame = 0
	@ frame_needed = 0, uses_anonymous_args = 0
	strd	r4, [sp, #-24]!
	.save {r4, r5, r6, r7, r8, lr}
	strd	r6, [sp, #8]
	mov	r7, r2
	str	r8, [sp, #16]
	str	lr, [sp, #20]
	bl	dev_get_drvdata(PLT)
	ldr	r4, [r0, #8]
	mov	r6, r0
	cmp	r4, #0
	beq	.L1350
	add	r5, r4, #60
	mov	r0, r5
	bl	_raw_spin_lock_irqsave(PLT)
	ldr	r3, [r4, #12]
	mov	r1, r0
	cmp	r3, #0
	beq	.L1354
	ldr	r4, .L1355
.LPIC224:
	add	r4, pc, r4
.L1349:
	mov	r0, r5
	bl	_raw_spin_unlock_irqrestore(PLT)
.L1348:
	ldr	r2, .L1355+4
	mov	r0, r7
	mov	r3, r4
	ldrd	r6, [sp, #8]
	mov	r1, #4096
	ldrd	r4, [sp]
	ldr	r8, [sp, #16]
	ldr	lr, [sp, #20]
.LPIC228:
	add	r2, pc, r2
	add	sp, sp, #24
	b	snprintf(PLT)
.L1350:
	ldr	r4, .L1355+8
.LPIC227:
	add	r4, pc, r4
	b	.L1348
.L1354:
	ldrb	r3, [r6, #56]	@ zero_extendqisi2
	cmp	r3, #0
	beq	.L1352
	ldr	r4, .L1355+12
.LPIC226:
	add	r4, pc, r4
	b	.L1349
.L1352:
	ldr	r4, .L1355+16
.LPIC225:
	add	r4, pc, r4
	b	.L1349
.L1356:
	.align	2
.L1355:
	.word	.LC69-(.LPIC224+8)
	.word	.LC72-(.LPIC228+8)
	.word	.LC70-(.LPIC227+8)
	.word	.LC71-(.LPIC226+8)
	.word	.LC70-(.LPIC225+8)
	.fnend
	.size	state_show, .-state_show
	.align	2
	.type	pm_qos_show, %function
pm_qos_show:
	.fnstart
	@ args = 0, pretend = 0, frame = 0
	@ frame_needed = 0, uses_anonymous_args = 0
	.save {r4, lr}
	str	r4, [sp, #-8]!
	mov	r4, r2
	str	lr, [sp, #4]
	bl	dev_get_drvdata(PLT)
	ldr	r2, .L1359
	add	r3, r0, #60
	mov	r1, #4096
	mov	r0, r4
	ldr	lr, [sp, #4]
	ldr	r4, [sp]
	add	sp, sp, #8
.LPIC229:
	add	r2, pc, r2
	b	snprintf(PLT)
.L1360:
	.align	2
.L1359:
	.word	.LC72-(.LPIC229+8)
	.fnend
	.size	pm_qos_show, .-pm_qos_show
	.align	2
	.type	enable_show, %function
enable_show:
	.fnstart
	@ args = 0, pretend = 0, frame = 0
	@ frame_needed = 0, uses_anonymous_args = 0
	.save {r4, lr}
	str	r4, [sp, #-8]!
	mov	r4, r2
	str	lr, [sp, #4]
	bl	dev_get_drvdata(PLT)
	ldr	r2, .L1363
	mov	r1, #4096
	ldrb	r3, [r0, #20]	@ zero_extendqisi2
	mov	r0, r4
	ldr	lr, [sp, #4]
	ldr	r4, [sp]
	add	sp, sp, #8
.LPIC230:
	add	r2, pc, r2
	b	snprintf(PLT)
.L1364:
	.align	2
.L1363:
	.word	.LC68-(.LPIC230+8)
	.fnend
	.size	enable_show, .-enable_show
	.align	2
	.type	iSerial_show, %function
iSerial_show:
	.fnstart
	@ args = 0, pretend = 0, frame = 0
	@ frame_needed = 0, uses_anonymous_args = 0
	@ link register save eliminated.
	ldr	r3, .L1366
	mov	r0, r2
	mov	r1, #4096
	ldr	r2, .L1366+4
.LPIC232:
	add	r3, pc, r3
.LPIC231:
	add	r2, pc, r2
	add	r3, r3, #2400
	b	snprintf(PLT)
.L1367:
	.align	2
.L1366:
	.word	.LANCHOR2-(.LPIC232+8)
	.word	.LC73-(.LPIC231+8)
	.fnend
	.size	iSerial_show, .-iSerial_show
	.align	2
	.type	iProduct_show, %function
iProduct_show:
	.fnstart
	@ args = 0, pretend = 0, frame = 0
	@ frame_needed = 0, uses_anonymous_args = 0
	@ link register save eliminated.
	ldr	r3, .L1369
	mov	r0, r2
	mov	r1, #4096
	ldr	r2, .L1369+4
.LPIC234:
	add	r3, pc, r3
.LPIC233:
	add	r2, pc, r2
	add	r3, r3, #2656
	b	snprintf(PLT)
.L1370:
	.align	2
.L1369:
	.word	.LANCHOR2-(.LPIC234+8)
	.word	.LC73-(.LPIC233+8)
	.fnend
	.size	iProduct_show, .-iProduct_show
	.align	2
	.type	iManufacturer_show, %function
iManufacturer_show:
	.fnstart
	@ args = 0, pretend = 0, frame = 0
	@ frame_needed = 0, uses_anonymous_args = 0
	@ link register save eliminated.
	ldr	r3, .L1372
	mov	r0, r2
	mov	r1, #4096
	ldr	r2, .L1372+4
.LPIC236:
	add	r3, pc, r3
.LPIC235:
	add	r2, pc, r2
	add	r3, r3, #2912
	b	snprintf(PLT)
.L1373:
	.align	2
.L1372:
	.word	.LANCHOR2-(.LPIC236+8)
	.word	.LC73-(.LPIC235+8)
	.fnend
	.size	iManufacturer_show, .-iManufacturer_show
	.align	2
	.type	bDeviceProtocol_show, %function
bDeviceProtocol_show:
	.fnstart
	@ args = 0, pretend = 0, frame = 0
	@ frame_needed = 0, uses_anonymous_args = 0
	@ link register save eliminated.
	ldr	r3, .L1375
	mov	r0, r2
	mov	r1, #4096
	ldr	r2, .L1375+4
.LPIC238:
	add	r3, pc, r3
.LPIC237:
	add	r2, pc, r2
	ldrb	r3, [r3, #222]	@ zero_extendqisi2
	b	snprintf(PLT)
.L1376:
	.align	2
.L1375:
	.word	.LANCHOR1-(.LPIC238+8)
	.word	.LC68-(.LPIC237+8)
	.fnend
	.size	bDeviceProtocol_show, .-bDeviceProtocol_show
	.align	2
	.type	bDeviceSubClass_show, %function
bDeviceSubClass_show:
	.fnstart
	@ args = 0, pretend = 0, frame = 0
	@ frame_needed = 0, uses_anonymous_args = 0
	@ link register save eliminated.
	ldr	r3, .L1378
	mov	r0, r2
	mov	r1, #4096
	ldr	r2, .L1378+4
.LPIC240:
	add	r3, pc, r3
.LPIC239:
	add	r2, pc, r2
	ldrb	r3, [r3, #221]	@ zero_extendqisi2
	b	snprintf(PLT)
.L1379:
	.align	2
.L1378:
	.word	.LANCHOR1-(.LPIC240+8)
	.word	.LC68-(.LPIC239+8)
	.fnend
	.size	bDeviceSubClass_show, .-bDeviceSubClass_show
	.align	2
	.type	bDeviceClass_show, %function
bDeviceClass_show:
	.fnstart
	@ args = 0, pretend = 0, frame = 0
	@ frame_needed = 0, uses_anonymous_args = 0
	@ link register save eliminated.
	ldr	r3, .L1381
	mov	r0, r2
	mov	r1, #4096
	ldr	r2, .L1381+4
.LPIC242:
	add	r3, pc, r3
.LPIC241:
	add	r2, pc, r2
	ldrb	r3, [r3, #220]	@ zero_extendqisi2
	b	snprintf(PLT)
.L1382:
	.align	2
.L1381:
	.word	.LANCHOR1-(.LPIC242+8)
	.word	.LC68-(.LPIC241+8)
	.fnend
	.size	bDeviceClass_show, .-bDeviceClass_show
	.align	2
	.type	bcdDevice_show, %function
bcdDevice_show:
	.fnstart
	@ args = 0, pretend = 0, frame = 0
	@ frame_needed = 0, uses_anonymous_args = 0
	@ link register save eliminated.
	ldr	r3, .L1384
	mov	r0, r2
	mov	r1, #4096
	ldr	r2, .L1384+4
.LPIC244:
	add	r3, pc, r3
.LPIC243:
	add	r2, pc, r2
	ldrh	r3, [r3, #228]
	b	snprintf(PLT)
.L1385:
	.align	2
.L1384:
	.word	.LANCHOR1-(.LPIC244+8)
	.word	.LC74-(.LPIC243+8)
	.fnend
	.size	bcdDevice_show, .-bcdDevice_show
	.align	2
	.type	idProduct_show, %function
idProduct_show:
	.fnstart
	@ args = 0, pretend = 0, frame = 0
	@ frame_needed = 0, uses_anonymous_args = 0
	@ link register save eliminated.
	ldr	r3, .L1387
	mov	r0, r2
	mov	r1, #4096
	ldr	r2, .L1387+4
.LPIC246:
	add	r3, pc, r3
.LPIC245:
	add	r2, pc, r2
	ldrh	r3, [r3, #226]
	b	snprintf(PLT)
.L1388:
	.align	2
.L1387:
	.word	.LANCHOR1-(.LPIC246+8)
	.word	.LC74-(.LPIC245+8)
	.fnend
	.size	idProduct_show, .-idProduct_show
	.align	2
	.type	idVendor_show, %function
idVendor_show:
	.fnstart
	@ args = 0, pretend = 0, frame = 0
	@ frame_needed = 0, uses_anonymous_args = 0
	@ link register save eliminated.
	ldr	r3, .L1390
	mov	r0, r2
	mov	r1, #4096
	ldr	r2, .L1390+4
.LPIC248:
	add	r3, pc, r3
.LPIC247:
	add	r2, pc, r2
	ldrh	r3, [r3, #224]
	b	snprintf(PLT)
.L1391:
	.align	2
.L1390:
	.word	.LANCHOR1-(.LPIC248+8)
	.word	.LC74-(.LPIC247+8)
	.fnend
	.size	idVendor_show, .-idVendor_show
	.align	2
	.type	audio_source_pcm_show, %function
audio_source_pcm_show:
	.fnstart
	@ args = 0, pretend = 0, frame = 0
	@ frame_needed = 0, uses_anonymous_args = 0
	.save {r4, lr}
	str	r4, [sp, #-8]!
	mov	r4, r2
	str	lr, [sp, #4]
	.pad #8
	sub	sp, sp, #8
	bl	dev_get_drvdata(PLT)
	ldr	ip, [r0, #4]
	mov	r1, #4096
	mov	r0, r4
	ldr	r2, .L1394
	ldmia	ip, {r3, ip}
.LPIC249:
	add	r2, pc, r2
	str	ip, [sp]
	bl	snprintf(PLT)
	add	sp, sp, #8
	@ sp needed
	ldr	r4, [sp]
	add	sp, sp, #4
	ldr	pc, [sp], #4
.L1395:
	.align	2
.L1394:
	.word	.LC75-(.LPIC249+8)
	.fnend
	.size	audio_source_pcm_show, .-audio_source_pcm_show
	.align	2
	.type	mass_storage_inquiry_show, %function
mass_storage_inquiry_show:
	.fnstart
	@ args = 0, pretend = 0, frame = 0
	@ frame_needed = 0, uses_anonymous_args = 0
	.save {r4, lr}
	str	r4, [sp, #-8]!
	mov	r4, r2
	str	lr, [sp, #4]
	bl	dev_get_drvdata(PLT)
	ldr	r3, [r0, #4]
	mov	r1, #4096
	mov	r0, r4
	ldr	r2, .L1398
	ldr	r4, [sp]
	ldr	lr, [sp, #4]
	add	sp, sp, #8
	ldr	r3, [r3, #96]
.LPIC250:
	add	r2, pc, r2
	add	r3, r3, #180
	b	snprintf(PLT)
.L1399:
	.align	2
.L1398:
	.word	.LC72-(.LPIC250+8)
	.fnend
	.size	mass_storage_inquiry_show, .-mass_storage_inquiry_show
	.align	2
	.type	ncm_ethaddr_show, %function
ncm_ethaddr_show:
	.fnstart
	@ args = 0, pretend = 0, frame = 0
	@ frame_needed = 0, uses_anonymous_args = 0
	.save {r4, lr}
	str	r4, [sp, #-8]!
	mov	r4, r2
	str	lr, [sp, #4]
	.pad #24
	sub	sp, sp, #24
	bl	dev_get_drvdata(PLT)
	ldr	ip, [r0, #4]
	mov	r1, #4096
	mov	r0, r4
	ldr	r2, .L1402
	ldrb	lr, [ip, #1]	@ zero_extendqisi2
	ldrb	r3, [ip]	@ zero_extendqisi2
.LPIC251:
	add	r2, pc, r2
	str	lr, [sp]
	ldrb	lr, [ip, #2]	@ zero_extendqisi2
	str	lr, [sp, #4]
	ldrb	lr, [ip, #3]	@ zero_extendqisi2
	str	lr, [sp, #8]
	ldrb	lr, [ip, #4]	@ zero_extendqisi2
	str	lr, [sp, #12]
	ldrb	ip, [ip, #5]	@ zero_extendqisi2
	str	ip, [sp, #16]
	bl	snprintf(PLT)
	add	sp, sp, #24
	@ sp needed
	ldr	r4, [sp]
	add	sp, sp, #4
	ldr	pc, [sp], #4
.L1403:
	.align	2
.L1402:
	.word	.LC76-(.LPIC251+8)
	.fnend
	.size	ncm_ethaddr_show, .-ncm_ethaddr_show
	.align	2
	.type	ecm_ethaddr_show, %function
ecm_ethaddr_show:
	.fnstart
	@ args = 0, pretend = 0, frame = 0
	@ frame_needed = 0, uses_anonymous_args = 0
	.save {r4, lr}
	str	r4, [sp, #-8]!
	mov	r4, r2
	str	lr, [sp, #4]
	.pad #24
	sub	sp, sp, #24
	bl	dev_get_drvdata(PLT)
	ldr	ip, [r0, #4]
	mov	r1, #4096
	mov	r0, r4
	ldr	r2, .L1406
	ldrb	lr, [ip, #1]	@ zero_extendqisi2
	ldrb	r3, [ip]	@ zero_extendqisi2
.LPIC252:
	add	r2, pc, r2
	str	lr, [sp]
	ldrb	lr, [ip, #2]	@ zero_extendqisi2
	str	lr, [sp, #4]
	ldrb	lr, [ip, #3]	@ zero_extendqisi2
	str	lr, [sp, #8]
	ldrb	lr, [ip, #4]	@ zero_extendqisi2
	str	lr, [sp, #12]
	ldrb	ip, [ip, #5]	@ zero_extendqisi2
	str	ip, [sp, #16]
	bl	snprintf(PLT)
	add	sp, sp, #24
	@ sp needed
	ldr	r4, [sp]
	add	sp, sp, #4
	ldr	pc, [sp], #4
.L1407:
	.align	2
.L1406:
	.word	.LC76-(.LPIC252+8)
	.fnend
	.size	ecm_ethaddr_show, .-ecm_ethaddr_show
	.align	2
	.type	ecm_transports_show, %function
ecm_transports_show:
	.fnstart
	@ args = 0, pretend = 0, frame = 0
	@ frame_needed = 0, uses_anonymous_args = 0
	@ link register save eliminated.
	ldr	r3, .L1409
	mov	r0, r2
	mov	r1, #4096
	ldr	r2, .L1409+4
.LPIC254:
	add	r3, pc, r3
.LPIC253:
	add	r2, pc, r2
	add	r3, r3, #3168
	b	snprintf(PLT)
.L1410:
	.align	2
.L1409:
	.word	.LANCHOR2-(.LPIC254+8)
	.word	.LC72-(.LPIC253+8)
	.fnend
	.size	ecm_transports_show, .-ecm_transports_show
	.align	2
	.type	rndis_max_pkt_per_xfer_show, %function
rndis_max_pkt_per_xfer_show:
	.fnstart
	@ args = 0, pretend = 0, frame = 0
	@ frame_needed = 0, uses_anonymous_args = 0
	.save {r4, lr}
	str	r4, [sp, #-8]!
	mov	r4, r2
	str	lr, [sp, #4]
	bl	dev_get_drvdata(PLT)
	ldr	r3, [r0, #4]
	mov	r1, #4096
	mov	r0, r4
	ldr	r2, .L1413
	ldr	r4, [sp]
	ldr	lr, [sp, #4]
	add	sp, sp, #8
	ldrb	r3, [r3, #12]	@ zero_extendqisi2
.LPIC255:
	add	r2, pc, r2
	b	snprintf(PLT)
.L1414:
	.align	2
.L1413:
	.word	.LC68-(.LPIC255+8)
	.fnend
	.size	rndis_max_pkt_per_xfer_show, .-rndis_max_pkt_per_xfer_show
	.align	2
	.type	rndis_vendorID_show, %function
rndis_vendorID_show:
	.fnstart
	@ args = 0, pretend = 0, frame = 0
	@ frame_needed = 0, uses_anonymous_args = 0
	.save {r4, lr}
	str	r4, [sp, #-8]!
	mov	r4, r2
	str	lr, [sp, #4]
	bl	dev_get_drvdata(PLT)
	ldr	r3, [r0, #4]
	mov	r1, #4096
	mov	r0, r4
	ldr	r2, .L1417
	ldr	r4, [sp]
	ldr	lr, [sp, #4]
	add	sp, sp, #8
	ldr	r3, [r3, #8]
.LPIC256:
	add	r2, pc, r2
	b	snprintf(PLT)
.L1418:
	.align	2
.L1417:
	.word	.LC74-(.LPIC256+8)
	.fnend
	.size	rndis_vendorID_show, .-rndis_vendorID_show
	.align	2
	.type	rndis_ethaddr_show, %function
rndis_ethaddr_show:
	.fnstart
	@ args = 0, pretend = 0, frame = 0
	@ frame_needed = 0, uses_anonymous_args = 0
	.save {r4, lr}
	str	r4, [sp, #-8]!
	mov	r4, r2
	str	lr, [sp, #4]
	.pad #24
	sub	sp, sp, #24
	bl	dev_get_drvdata(PLT)
	ldr	ip, [r0, #4]
	mov	r1, #4096
	mov	r0, r4
	ldr	r2, .L1421
	ldrb	lr, [ip, #1]	@ zero_extendqisi2
	ldrb	r3, [ip]	@ zero_extendqisi2
.LPIC257:
	add	r2, pc, r2
	str	lr, [sp]
	ldrb	lr, [ip, #2]	@ zero_extendqisi2
	str	lr, [sp, #4]
	ldrb	lr, [ip, #3]	@ zero_extendqisi2
	str	lr, [sp, #8]
	ldrb	lr, [ip, #4]	@ zero_extendqisi2
	str	lr, [sp, #12]
	ldrb	ip, [ip, #5]	@ zero_extendqisi2
	str	ip, [sp, #16]
	bl	snprintf(PLT)
	add	sp, sp, #24
	@ sp needed
	ldr	r4, [sp]
	add	sp, sp, #4
	ldr	pc, [sp], #4
.L1422:
	.align	2
.L1421:
	.word	.LC76-(.LPIC257+8)
	.fnend
	.size	rndis_ethaddr_show, .-rndis_ethaddr_show
	.align	2
	.type	rndis_wceis_show, %function
rndis_wceis_show:
	.fnstart
	@ args = 0, pretend = 0, frame = 0
	@ frame_needed = 0, uses_anonymous_args = 0
	.save {r4, lr}
	str	r4, [sp, #-8]!
	mov	r4, r2
	str	lr, [sp, #4]
	bl	dev_get_drvdata(PLT)
	ldr	r3, [r0, #4]
	mov	r1, #4096
	mov	r0, r4
	ldr	r2, .L1425
	ldr	r4, [sp]
	ldr	lr, [sp, #4]
	add	sp, sp, #8
	ldrb	r3, [r3, #269]	@ zero_extendqisi2
.LPIC258:
	add	r2, pc, r2
	b	snprintf(PLT)
.L1426:
	.align	2
.L1425:
	.word	.LC68-(.LPIC258+8)
	.fnend
	.size	rndis_wceis_show, .-rndis_wceis_show
	.align	2
	.type	rndis_manufacturer_show, %function
rndis_manufacturer_show:
	.fnstart
	@ args = 0, pretend = 0, frame = 0
	@ frame_needed = 0, uses_anonymous_args = 0
	.save {r4, lr}
	str	r4, [sp, #-8]!
	mov	r4, r2
	str	lr, [sp, #4]
	bl	dev_get_drvdata(PLT)
	ldr	r3, [r0, #4]
	mov	r1, #4096
	mov	r0, r4
	ldr	r2, .L1429
	ldr	r4, [sp]
	ldr	lr, [sp, #4]
	add	sp, sp, #8
	add	r3, r3, #13
.LPIC259:
	add	r2, pc, r2
	b	snprintf(PLT)
.L1430:
	.align	2
.L1429:
	.word	.LC72-(.LPIC259+8)
	.fnend
	.size	rndis_manufacturer_show, .-rndis_manufacturer_show
	.align	2
	.type	serial_xport_names_show, %function
serial_xport_names_show:
	.fnstart
	@ args = 0, pretend = 0, frame = 0
	@ frame_needed = 0, uses_anonymous_args = 0
	@ link register save eliminated.
	ldr	r3, .L1432
	mov	r0, r2
	mov	r1, #4096
	ldr	r2, .L1432+4
.LPIC261:
	add	r3, pc, r3
	add	r3, r3, #3216
.LPIC260:
	add	r2, pc, r2
	add	r3, r3, #4
	b	snprintf(PLT)
.L1433:
	.align	2
.L1432:
	.word	.LANCHOR2-(.LPIC261+8)
	.word	.LC72-(.LPIC260+8)
	.fnend
	.size	serial_xport_names_show, .-serial_xport_names_show
	.align	2
	.type	rmnet_xport_names_show, %function
rmnet_xport_names_show:
	.fnstart
	@ args = 0, pretend = 0, frame = 0
	@ frame_needed = 0, uses_anonymous_args = 0
	@ link register save eliminated.
	ldr	r3, .L1435
	mov	r0, r2
	mov	r1, #4096
	ldr	r2, .L1435+4
.LPIC263:
	add	r3, pc, r3
	add	r3, r3, #3248
.LPIC262:
	add	r2, pc, r2
	add	r3, r3, #4
	b	snprintf(PLT)
.L1436:
	.align	2
.L1435:
	.word	.LANCHOR2-(.LPIC263+8)
	.word	.LC72-(.LPIC262+8)
	.fnend
	.size	rmnet_xport_names_show, .-rmnet_xport_names_show
	.align	2
	.type	rmnet_transports_show, %function
rmnet_transports_show:
	.fnstart
	@ args = 0, pretend = 0, frame = 0
	@ frame_needed = 0, uses_anonymous_args = 0
	@ link register save eliminated.
	ldr	r3, .L1438
	mov	r0, r2
	mov	r1, #4096
	ldr	r2, .L1438+4
.LPIC265:
	add	r3, pc, r3
	add	r3, r3, #3296
.LPIC264:
	add	r2, pc, r2
	add	r3, r3, #8
	b	snprintf(PLT)
.L1439:
	.align	2
.L1438:
	.word	.LANCHOR2-(.LPIC265+8)
	.word	.LC72-(.LPIC264+8)
	.fnend
	.size	rmnet_transports_show, .-rmnet_transports_show
	.align	2
	.type	mbim_transports_show, %function
mbim_transports_show:
	.fnstart
	@ args = 0, pretend = 0, frame = 0
	@ frame_needed = 0, uses_anonymous_args = 0
	@ link register save eliminated.
	ldr	r3, .L1441
	mov	r0, r2
	mov	r1, #4096
	ldr	r2, .L1441+4
.LPIC267:
	add	r3, pc, r3
	add	r3, r3, #3344
.LPIC266:
	add	r2, pc, r2
	add	r3, r3, #12
	b	snprintf(PLT)
.L1442:
	.align	2
.L1441:
	.word	.LANCHOR2-(.LPIC267+8)
	.word	.LC72-(.LPIC266+8)
	.fnend
	.size	mbim_transports_show, .-mbim_transports_show
	.align	2
	.type	rmnet_sdio_response_complete, %function
rmnet_sdio_response_complete:
	.fnstart
	@ args = 0, pretend = 0, frame = 0
	@ frame_needed = 0, uses_anonymous_args = 0
	ldr	r3, [r1, #44]
	ldr	r2, [r1, #32]
	cmn	r3, #104
	ldr	r2, [r2, #76]
	bxeq	lr
	cmp	r3, #0
	bxeq	lr
	cmn	r3, #108
	bxeq	lr
	.save {r4, lr}
	str	r4, [sp, #-8]!
	str	lr, [sp, #4]
	ldr	r4, [r2]
	.pad #8
	sub	sp, sp, #8
	ldr	lr, [r1, #48]
	ldr	ip, [r1, #4]
	ldr	r1, .L1457
	ldr	r2, [r0, #4]
	add	r0, r4, #32
	str	lr, [sp]
	str	ip, [sp, #4]
.LPIC268:
	add	r1, pc, r1
	bl	_dev_info(PLT)
	add	sp, sp, #8
	@ sp needed
	ldr	r4, [sp]
	add	sp, sp, #4
	ldr	pc, [sp], #4
.L1458:
	.align	2
.L1457:
	.word	.LC77-(.LPIC268+8)
	.fnend
	.size	rmnet_sdio_response_complete, .-rmnet_sdio_response_complete
	.align	2
	.type	rmnet_mux_response_complete, %function
rmnet_mux_response_complete:
	.fnstart
	@ args = 0, pretend = 0, frame = 0
	@ frame_needed = 0, uses_anonymous_args = 0
	ldr	r3, [r1, #44]
	ldr	r2, [r1, #32]
	cmn	r3, #104
	ldr	r2, [r2, #76]
	bxeq	lr
	cmp	r3, #0
	bxeq	lr
	cmn	r3, #108
	bxeq	lr
	.save {r4, lr}
	str	r4, [sp, #-8]!
	str	lr, [sp, #4]
	ldr	r4, [r2]
	.pad #8
	sub	sp, sp, #8
	ldr	lr, [r1, #48]
	ldr	ip, [r1, #4]
	ldr	r1, .L1473
	ldr	r2, [r0, #4]
	add	r0, r4, #32
	str	lr, [sp]
	str	ip, [sp, #4]
.LPIC269:
	add	r1, pc, r1
	bl	_dev_info(PLT)
	add	sp, sp, #8
	@ sp needed
	ldr	r4, [sp]
	add	sp, sp, #4
	ldr	pc, [sp], #4
.L1474:
	.align	2
.L1473:
	.word	.LC78-(.LPIC269+8)
	.fnend
	.size	rmnet_mux_response_complete, .-rmnet_mux_response_complete
	.align	2
	.type	composite_show_suspended, %function
composite_show_suspended:
	.fnstart
	@ args = 0, pretend = 0, frame = 0
	@ frame_needed = 0, uses_anonymous_args = 0
	.save {r4, lr}
	str	r4, [sp, #-8]!
	mov	r4, r2
	str	lr, [sp, #4]
	bl	dev_get_drvdata(PLT)
	ldrb	r2, [r0, #16]	@ zero_extendqisi2
	mov	r0, r4
	ldr	r1, .L1477
	ldr	r4, [sp]
	ldr	lr, [sp, #4]
	add	sp, sp, #8
	and	r2, r2, #1
.LPIC270:
	add	r1, pc, r1
	b	sprintf(PLT)
.L1478:
	.align	2
.L1477:
	.word	.LC68-(.LPIC270+8)
	.fnend
	.size	composite_show_suspended, .-composite_show_suspended
	.align	2
	.type	midi_alsa_show, %function
midi_alsa_show:
	.fnstart
	@ args = 0, pretend = 0, frame = 0
	@ frame_needed = 0, uses_anonymous_args = 0
	.save {r4, lr}
	str	r4, [sp, #-8]!
	mov	r4, r2
	str	lr, [sp, #4]
	bl	dev_get_drvdata(PLT)
	ldr	r3, [r0, #4]
	mov	r0, r4
	ldr	r1, .L1481
	ldr	r4, [sp]
	ldr	lr, [sp, #4]
	add	sp, sp, #8
	ldrd	r2, [r3]
.LPIC271:
	add	r1, pc, r1
	b	sprintf(PLT)
.L1482:
	.align	2
.L1481:
	.word	.LC75-(.LPIC271+8)
	.fnend
	.size	midi_alsa_show, .-midi_alsa_show
	.align	2
	.type	fsg_show_ro, %function
fsg_show_ro:
	.fnstart
	@ args = 0, pretend = 0, frame = 0
	@ frame_needed = 0, uses_anonymous_args = 0
	@ link register save eliminated.
	ldr	r1, [r0, #-48]
	ldrb	r3, [r0, #-24]	@ zero_extendqisi2
	mov	r0, r2
	cmp	r1, #0
	ldr	r1, .L1486
	ubfxne	r3, r3, #1, #1
	andeq	r3, r3, #1
	mov	r2, r3
.LPIC272:
	add	r1, pc, r1
	b	sprintf(PLT)
.L1487:
	.align	2
.L1486:
	.word	.LC68-(.LPIC272+8)
	.fnend
	.size	fsg_show_ro, .-fsg_show_ro
	.align	2
	.type	fsg_show_nofua, %function
fsg_show_nofua:
	.fnstart
	@ args = 0, pretend = 0, frame = 0
	@ frame_needed = 0, uses_anonymous_args = 0
	@ link register save eliminated.
	ldrb	r3, [r0, #-24]	@ zero_extendqisi2
	mov	r0, r2
	ldr	r1, .L1489
	mov	r2, r3, lsr #7
.LPIC273:
	add	r1, pc, r1
	b	sprintf(PLT)
.L1490:
	.align	2
.L1489:
	.word	.LC79-(.LPIC273+8)
	.fnend
	.size	fsg_show_nofua, .-fsg_show_nofua
	.align	2
	.type	fsg_show_cdrom, %function
fsg_show_cdrom:
	.fnstart
	@ args = 0, pretend = 0, frame = 0
	@ frame_needed = 0, uses_anonymous_args = 0
	@ link register save eliminated.
	ldrb	r3, [r0, #-24]	@ zero_extendqisi2
	mov	r0, r2
	ldr	r1, .L1492
	ubfx	r2, r3, #3, #1
.LPIC274:
	add	r1, pc, r1
	b	sprintf(PLT)
.L1493:
	.align	2
.L1492:
	.word	.LC68-(.LPIC274+8)
	.fnend
	.size	fsg_show_cdrom, .-fsg_show_cdrom
	.align	2
	.type	check_command, %function
check_command:
	.fnstart
	@ args = 8, pretend = 0, frame = 24
	@ frame_needed = 0, uses_anonymous_args = 0
	strd	r4, [sp, #-24]!
	.save {r4, r5, r6, r7, r8, lr}
	mov	r4, r0
	mov	r5, r3
	strd	r6, [sp, #8]
	ldr	r6, .L1545
	mov	r0, #0
	str	r8, [sp, #16]
	mov	r7, r1
	mov	r8, r2
	str	lr, [sp, #20]
	ldr	ip, [r4, #120]
	.pad #24
	sub	sp, sp, #24
.LPIC286:
	ldr	r6, [pc, r6]		@ tls_load_dot_plus_eight
	strb	r0, [sp]
	cmp	ip, r0
	ldr	r3, [r6]
	str	r3, [sp, #20]
	bne	.L1539
.L1495:
	ldr	r2, [r4, #128]
	ldr	r3, [r4, #124]
	cmp	r2, #0
	beq	.L1496
	cmp	r2, r3
	bls	.L1497
	ldrb	r2, [r4, #144]	@ zero_extendqisi2
	cmp	r8, ip
	str	r3, [r4, #128]
	str	r3, [r4, #136]
	str	r3, [r4, #140]
	orr	r2, r2, #4
	strb	r2, [r4, #144]
	beq	.L1498
	cmp	r3, #0
	bne	.L1501
.L1498:
	ldr	r0, [r4, #72]
	cmp	r0, r7
	beq	.L1513
.L1543:
	blt	.L1501
	ldr	ip, [r4, #104]
	cmp	ip, #0
	beq	.L1502
.L1544:
	ldrb	r3, [r4, #76]	@ zero_extendqisi2
	cmp	r3, #3
	beq	.L1503
	ldrb	r2, [ip, #24]	@ zero_extendqisi2
	mov	r3, #0
	ldr	r1, [ip, #36]
	str	r3, [ip, #28]
	str	r3, [ip, #32]
	bfi	r2, r3, #6, #1
	cmp	r1, r3
	strb	r2, [ip, #24]
	bne	.L1504
.L1503:
	ldrb	r3, [r4, #77]	@ zero_extendqisi2
	cmp	r0, #1
	and	r3, r3, #31
	strb	r3, [r4, #77]
	ble	.L1509
.L1511:
	mov	r3, #1
	add	r2, r4, #76
	mov	lr, r3
.L1508:
	ldrb	r1, [r2, #1]!	@ zero_extendqisi2
	cmp	r1, #0
	beq	.L1506
	ands	r1, r5, lr, asl r3
	beq	.L1540
.L1506:
	add	r3, r3, #1
	cmp	r0, r3
	bgt	.L1508
	cmp	ip, #0
	beq	.L1510
.L1509:
	ldr	r3, [sp, #48]
	ldr	r2, [ip]
	adds	r3, r3, #0
	movne	r3, #1
	cmp	r2, #0
	movne	r3, #0
	cmp	r3, #0
	bne	.L1541
.L1510:
	mov	r0, #0
.L1499:
	ldr	r2, [sp, #20]
	ldr	r3, [r6]
	cmp	r2, r3
	bne	.L1542
	add	sp, sp, #24
	@ sp needed
	ldrd	r4, [sp]
	ldrd	r6, [sp, #8]
	ldr	r8, [sp, #16]
	add	sp, sp, #20
	ldr	pc, [sp], #4
.L1496:
	ldr	r0, [r4, #72]
	str	r3, [r4, #136]
	str	r3, [r4, #140]
	cmp	r0, r7
	bne	.L1543
.L1513:
	ldr	ip, [r4, #104]
	mov	r0, r7
	cmp	ip, #0
	bne	.L1544
.L1502:
	ldrb	r3, [r4, #144]	@ zero_extendqisi2
	ldrb	r2, [r4, #76]	@ zero_extendqisi2
	bfi	r3, ip, #4, #1
	cmp	r2, #3
	cmpne	r2, #18
	strb	r3, [r4, #144]
	bne	.L1507
	ldrb	r3, [r4, #77]	@ zero_extendqisi2
	cmp	r0, #1
	and	r3, r3, #31
	strb	r3, [r4, #77]
	bgt	.L1511
	b	.L1510
.L1504:
	ldrb	r2, [r4, #76]	@ zero_extendqisi2
	cmp	r2, #18
	cmpne	r2, #3
	mvnne	r0, #21
	strne	r1, [ip, #28]
	strne	r3, [ip, #36]
	beq	.L1503
	b	.L1499
.L1540:
	cmp	ip, #0
	beq	.L1507
	mov	r3, #9216
	mvn	r0, #21
	movt	r3, 5
	str	r3, [ip, #28]
	b	.L1499
.L1539:
	ldr	r2, .L1545+4
	mov	r0, sp
	ldr	r1, .L1545+8
	ldr	r3, [r4, #124]
.LPIC285:
	add	r2, pc, r2
	add	ip, r2, ip
.LPIC284:
	add	r1, pc, r1
	ldrb	r2, [ip, #532]	@ zero_extendqisi2
	bl	sprintf(PLT)
	ldr	ip, [r4, #120]
	b	.L1495
.L1497:
	cmp	r8, ip
	str	r3, [r4, #136]
	str	r3, [r4, #140]
	beq	.L1498
.L1501:
	ldrb	r3, [r4, #144]	@ zero_extendqisi2
	mvn	r0, #21
	orr	r3, r3, #4
	strb	r3, [r4, #144]
	b	.L1499
.L1507:
	mvn	r0, #21
	b	.L1499
.L1541:
	mov	r3, #14848
	mvn	r0, #21
	movt	r3, 2
	str	r3, [ip, #28]
	b	.L1499
.L1542:
	bl	__stack_chk_fail(PLT)
.L1546:
	.align	2
.L1545:
	.word	__stack_chk_guard(GOT_PREL)+(.-(.LPIC286+8))
	.word	.LANCHOR3-(.LPIC285+8)
	.word	.LC80-(.LPIC284+8)
	.fnend
	.size	check_command, .-check_command
	.align	2
	.type	composite_unbind, %function
composite_unbind:
	.fnstart
	@ args = 0, pretend = 0, frame = 8
	@ frame_needed = 0, uses_anonymous_args = 0
	strd	r4, [sp, #-36]!
	.save {r4, r5, r6, r7, r8, r9, r10, fp, lr}
	strd	r6, [sp, #8]
	strd	r8, [sp, #16]
	add	r8, r0, #32
	strd	r10, [sp, #24]
	str	lr, [sp, #32]
	.pad #12
	sub	sp, sp, #12
	str	r0, [sp, #4]
	mov	r0, r8
	bl	dev_get_drvdata(PLT)
	ldr	r3, [r0, #12]
	mov	r6, r0
	cmp	r3, #0
	bne	.L1571
.L1548:
	add	r7, r6, #36
	mov	r10, #256
.L1553:
	ldr	r4, [r6, #36]
	cmp	r4, r7
	beq	.L1572
.L1554:
	ldr	r1, [r4, #4]
	mov	r3, #512
	sub	r9, r4, #28
	ldr	r0, [r4]
	mov	fp, r3
	add	r5, r4, #8
	str	r1, [r0, #4]
	str	r0, [r1]
	str	r10, [r4]
	str	r3, [r4, #4]
	b	.L1551
.L1552:
	ldmia	r1, {r0, r3}
	str	r3, [r0, #4]
	str	r0, [r3]
	ldr	r3, [r1, #-36]
	strd	r10, [r1]
	cmp	r3, #0
	bne	.L1573
.L1551:
	ldr	r1, [r4, #8]
	cmp	r1, r5
	bne	.L1552
	ldr	r3, [r4, #-16]
	cmp	r3, #0
	beq	.L1553
	mov	r0, r9
	blx	r3
	ldr	r4, [r6, #36]
	cmp	r4, r7
	bne	.L1554
.L1572:
	ldr	r3, .L1574
.LPIC288:
	add	r3, pc, r3
	ldr	r3, [r3, #88]
	ldr	r3, [r3, #28]
	cmp	r3, #0
	beq	.L1555
	mov	r0, r6
	blx	r3
.L1555:
	ldr	r3, [r6, #4]
	cmp	r3, #0
	beq	.L1556
	ldr	r0, [r3]
	bl	kfree(PLT)
	ldr	r3, [sp, #4]
	ldr	r1, [r6, #4]
	ldr	r0, [r3, #4]
	ldr	r3, [r0, #8]
	ldr	r3, [r3, #12]
	blx	r3
.L1556:
	ldr	r1, .L1574+4
	mov	r0, r8
.LPIC289:
	add	r1, pc, r1
	add	r1, r1, #8
	bl	device_remove_file(PLT)
	mov	r0, r6
	bl	kfree(PLT)
	mov	r0, r8
	mov	r1, #0
	bl	dev_set_drvdata(PLT)
	ldr	r3, .L1574+8
	mov	r2, #0
.LPIC290:
	add	r3, pc, r3
	str	r2, [r3, #88]
	add	sp, sp, #12
	@ sp needed
	ldrd	r4, [sp]
	ldrd	r6, [sp, #8]
	ldrd	r8, [sp, #16]
	ldrd	r10, [sp, #24]
	add	sp, sp, #32
	ldr	pc, [sp], #4
.L1573:
	sub	r1, r1, #64
	mov	r0, r9
	blx	r3
	b	.L1551
.L1571:
	ldr	r0, .L1574+12
	movw	r1, #1454
.LPIC287:
	add	r0, pc, r0
	bl	warn_slowpath_null(PLT)
	b	.L1548
.L1575:
	.align	2
.L1574:
	.word	.LANCHOR2-(.LPIC288+8)
	.word	.LANCHOR0-(.LPIC289+8)
	.word	.LANCHOR2-(.LPIC290+8)
	.word	.LC81-(.LPIC287+8)
	.fnend
	.size	composite_unbind, .-composite_unbind
	.align	2
	.type	eth_qc_stop, %function
eth_qc_stop:
	.fnstart
	@ args = 0, pretend = 0, frame = 0
	@ frame_needed = 0, uses_anonymous_args = 0
	strd	r4, [sp, #-24]!
	.save {r4, r5, r6, r7, r8, lr}
	mov	r4, r0
	strd	r6, [sp, #8]
	str	r8, [sp, #16]
	str	lr, [sp, #20]
	ldr	r1, [r0, #576]
	ldr	r6, [r0, #1220]
	cmp	r1, #0
	beq	.L1587
	add	r1, r1, #80
	mov	r0, #0
	bl	_set_bit(PLT)
.L1578:
	add	r5, r4, #1216
	mov	r0, r5
	bl	_raw_spin_lock_irqsave(PLT)
	ldr	r3, [r4, #1220]
	mov	r7, r0
	cmp	r3, #0
	beq	.L1579
	ldr	r3, [r6, #108]
	cmp	r3, #0
	beq	.L1579
	mov	r0, r6
	blx	r3
.L1579:
	mov	r0, r5
	mov	r1, r7
	bl	_raw_spin_unlock_irqrestore(PLT)
	ldrd	r4, [sp]
	mov	r0, #0
	ldrd	r6, [sp, #8]
	ldr	r8, [sp, #16]
	add	sp, sp, #20
	ldr	pc, [sp], #4
.L1587:
	ldr	r0, .L1588
	movw	r1, #1847
.LPIC291:
	add	r0, pc, r0
	bl	warn_slowpath_null(PLT)
	ldr	r0, .L1588+4
.LPIC292:
	add	r0, pc, r0
	bl	printk(PLT)
	b	.L1578
.L1589:
	.align	2
.L1588:
	.word	.LC82-(.LPIC291+8)
	.word	.LC83-(.LPIC292+8)
	.fnend
	.size	eth_qc_stop, .-eth_qc_stop
	.align	2
	.type	f_midi_transmit, %function
f_midi_transmit:
	.fnstart
	@ args = 0, pretend = 0, frame = 16
	@ frame_needed = 0, uses_anonymous_args = 0
	strd	r4, [sp, #-36]!
	.save {r4, r5, r6, r7, r8, r9, r10, fp, lr}
	strd	r10, [sp, #24]
	mov	r10, r0
	strd	r6, [sp, #8]
	strd	r8, [sp, #16]
	str	lr, [sp, #32]
	ldr	r3, [r0, #80]
	.pad #20
	sub	sp, sp, #20
	cmp	r3, #0
	str	r3, [sp, #4]
	beq	.L1590
	cmp	r1, #0
	mov	r9, r1
	beq	.L1636
.L1592:
	ldr	r3, .L1641
	mov	r2, #0
	add	r6, r10, #92
	mov	r1, r2
	add	fp, r10, #220
	add	r8, r10, #156
	add	r7, sp, #15
	str	r2, [r9, #4]
.LPIC294:
	add	r3, pc, r3
	str	r3, [r9, #28]
.L1624:
	ldr	r4, [fp, #4]!
	ldr	r5, [r6, #4]!
	cmp	r4, #0
	beq	.L1593
	ldr	r3, [r4, #4]
	cmp	r3, #0
	cmpne	r5, #0
	beq	.L1593
	ldr	r2, [r10, #328]
	add	r3, r1, #3
	cmp	r2, r3
	bls	.L1593
	str	r6, [sp]
.L1623:
	mov	r0, r5
	mov	r1, r7
	mov	r2, #1
	bl	snd_rawmidi_transmit(PLT)
	cmp	r0, #1
	bne	.L1637
	ldrb	r3, [r4, #8]	@ zero_extendqisi2
	ldrb	r2, [sp, #15]	@ zero_extendqisi2
	mov	r3, r3, asl #4
	cmp	r2, #247
	uxtb	r3, r3
	bhi	.L1638
	cmp	r2, #239
	bls	.L1597
	sub	r1, r2, #241
	cmp	r1, #6
	addls	pc, pc, r1, asl #2
	b	.L1598
.L1600:
	b	.L1599
	b	.L1601
	b	.L1599
	b	.L1605
	b	.L1605
	b	.L1603
	b	.L1604
	.p2align 1
.L1607:
	ldr	r2, [r9, #4]
	orr	r3, r3, #7
	mvn	r6, #8
	ldr	lr, [r9]
	ldrb	ip, [r4, #10]	@ zero_extendqisi2
	ldrb	r0, [r4, #11]	@ zero_extendqisi2
	add	r1, r2, #4
	strb	r3, [lr, r2]
	add	r2, lr, r2
	strb	ip, [r2, #1]
	strb	r0, [r2, #2]
	strb	r6, [r2, #3]
	str	r1, [r9, #4]
.L1605:
	mov	r3, #0
	strb	r3, [r4, #9]
	ldr	r1, [r9, #4]
.L1596:
	ldr	r3, [r10, #328]
	add	r2, r1, #3
	cmp	r2, r3
	bcc	.L1623
	ldr	r6, [sp]
.L1593:
	cmp	r6, r8
	bne	.L1624
	cmp	r1, #0
	bne	.L1639
	ldr	r0, [r9]
	bl	kfree(PLT)
	ldr	r0, [sp, #4]
	mov	r1, r9
	ldr	r3, [r0, #8]
	ldr	r3, [r3, #12]
	blx	r3
.L1590:
	add	sp, sp, #20
	@ sp needed
	ldrd	r4, [sp]
	ldrd	r6, [sp, #8]
	ldrd	r8, [sp, #16]
	ldrd	r10, [sp, #24]
	add	sp, sp, #32
	ldr	pc, [sp], #4
.L1601:
	mvn	r2, #13
	mov	r3, #2
	strb	r2, [r4, #10]
	strb	r3, [r4, #9]
	ldr	r1, [r9, #4]
	b	.L1596
.L1599:
	mov	r3, #1
	strb	r2, [r4, #10]
	strb	r3, [r4, #9]
	ldr	r1, [r9, #4]
	b	.L1596
.L1598:
	mvn	r2, #15
	mov	r3, #5
	strb	r2, [r4, #10]
	strb	r3, [r4, #9]
	ldr	r1, [r9, #4]
	b	.L1596
.L1603:
	ldr	r1, [r9, #4]
	orr	r3, r3, #5
	mov	r2, #0
	ldr	lr, [r9]
	mvn	ip, #9
	add	r0, r1, #4
	strb	r3, [lr, r1]
	add	r3, lr, r1
	strb	ip, [r3, #1]
	strb	r2, [r3, #2]
	strb	r2, [r3, #3]
	str	r0, [r9, #4]
	strb	r2, [r4, #9]
	ldr	r1, [r9, #4]
	b	.L1596
.L1638:
	ldr	r0, [r9, #4]
	orr	r3, r3, #15
	mov	ip, #0
	ldr	lr, [r9]
	add	r1, r0, #4
	strb	r3, [lr, r0]
	add	r3, lr, r0
	strb	r2, [r3, #1]
	strb	ip, [r3, #2]
	strb	ip, [r3, #3]
	str	r1, [r9, #4]
	b	.L1596
.L1597:
	tst	r2, #128
	bne	.L1640
	ldrb	r1, [r4, #9]	@ zero_extendqisi2
	sub	r1, r1, #1
	cmp	r1, #5
	addls	pc, pc, r1, asl #2
	b	.L1635
.L1613:
	b	.L1612
	b	.L1614
	b	.L1615
	b	.L1616
	b	.L1617
	b	.L1618
	.p2align 1
.L1640:
	add	r3, r2, #64
	strb	r2, [r4, #10]
	uxtb	r3, r3
	cmp	r3, #31
	movhi	r3, #2
	strlsb	r0, [r4, #9]
	strhib	r3, [r4, #9]
	ldr	r1, [r9, #4]
	b	.L1596
.L1618:
	ldr	r0, [r9, #4]
	orr	r3, r3, #4
	ldr	r1, [r9]
	ldrb	r6, [r4, #10]	@ zero_extendqisi2
	ldrb	lr, [r4, #11]	@ zero_extendqisi2
	add	ip, r0, #4
	strb	r3, [r1, r0]
	add	r1, r1, r0
	mov	r3, #4
	strb	r6, [r1, #1]
	strb	lr, [r1, #2]
	strb	r2, [r1, #3]
	str	ip, [r9, #4]
	strb	r3, [r4, #9]
.L1635:
	ldr	r1, [r9, #4]
	b	.L1596
.L1637:
	mov	r3, #0
	ldr	r6, [sp]
	str	r3, [r4, #4]
	ldr	r1, [r9, #4]
	b	.L1593
.L1604:
	ldrb	r2, [r4, #9]	@ zero_extendqisi2
	cmp	r2, #5
	beq	.L1606
	cmp	r2, #6
	beq	.L1607
	cmp	r2, #4
	bne	.L1605
	ldr	r2, [r9, #4]
	orr	r3, r3, #5
	mov	r1, #0
	ldr	lr, [r9]
	mvn	ip, #8
	add	r0, r2, #4
	strb	r3, [lr, r2]
	add	r3, lr, r2
	strb	ip, [r3, #1]
	strb	r1, [r3, #2]
	strb	r1, [r3, #3]
	str	r0, [r9, #4]
	b	.L1605
.L1617:
	mov	r3, #6
	strb	r2, [r4, #11]
	strb	r3, [r4, #9]
	ldr	r1, [r9, #4]
	b	.L1596
.L1616:
	mov	r3, #5
	strb	r2, [r4, #10]
	strb	r3, [r4, #9]
	ldr	r1, [r9, #4]
	b	.L1596
.L1615:
	ldrb	lr, [r4, #10]	@ zero_extendqisi2
	ldrb	r6, [r4, #11]	@ zero_extendqisi2
	cmp	lr, #239
	movls	r1, #2
	movhi	r1, #0
	orrls	r3, r3, lr, lsr #4
	orrhi	r3, r3, #3
	strb	r1, [r4, #9]
	ldmia	r9, {r0, ip}
	strb	r3, [r0, ip]
	add	r1, ip, #4
	add	r0, r0, ip
	strb	lr, [r0, #1]
	strb	r6, [r0, #2]
	strb	r2, [r0, #3]
	str	r1, [r9, #4]
	b	.L1596
.L1614:
	mov	r3, #3
	strb	r2, [r4, #11]
	strb	r3, [r4, #9]
	ldr	r1, [r9, #4]
	b	.L1596
.L1612:
	ldrb	lr, [r4, #10]	@ zero_extendqisi2
	mov	r6, #0
	cmp	lr, #239
	movhi	r1, #0
	orrls	r3, r3, lr, lsr #4
	orrhi	r3, r3, #2
	strhib	r1, [r4, #9]
	ldr	ip, [r9, #4]
	ldr	r0, [r9]
	add	r1, ip, #4
	strb	r3, [r0, ip]
	add	r0, r0, ip
	strb	lr, [r0, #1]
	strb	r2, [r0, #2]
	strb	r6, [r0, #3]
	str	r1, [r9, #4]
	b	.L1596
.L1606:
	ldr	r1, [r9, #4]
	orr	r3, r3, #6
	mvn	r6, #8
	ldr	r2, [r9]
	mov	ip, #0
	ldrb	lr, [r4, #10]	@ zero_extendqisi2
	add	r0, r1, #4
	strb	r3, [r2, r1]
	add	r2, r2, r1
	strb	lr, [r2, #1]
	strb	r6, [r2, #2]
	strb	ip, [r2, #3]
	str	r0, [r9, #4]
	b	.L1605
.L1639:
	ldr	r0, [sp, #4]
	mov	r1, r9
	mov	r2, #32
	ldr	r3, [r0, #8]
	ldr	r3, [r3, #16]
	blx	r3
	b	.L1590
.L1636:
	mov	r0, r3
	ldr	r1, [r10, #328]
	bl	midi_alloc_ep_req(PLT)
	subs	r9, r0, #0
	bne	.L1592
	ldr	r0, [r10, #76]
	ldr	r1, .L1641+4
	add	r0, r0, #32
.LPIC293:
	add	r1, pc, r1
	bl	dev_err(PLT)
	b	.L1590
.L1642:
	.align	2
.L1641:
	.word	f_midi_complete-(.LPIC294+8)
	.word	.LC84-(.LPIC293+8)
	.fnend
	.size	f_midi_transmit, .-f_midi_transmit
	.align	2
	.type	f_midi_in_tasklet, %function
f_midi_in_tasklet:
	.fnstart
	@ args = 0, pretend = 0, frame = 0
	@ frame_needed = 0, uses_anonymous_args = 0
	@ link register save eliminated.
	mov	r1, #0
	b	f_midi_transmit(PLT)
	.fnend
	.size	f_midi_in_tasklet, .-f_midi_in_tasklet
	.align	2
	.type	f_midi_out_trigger, %function
f_midi_out_trigger:
	.fnstart
	@ args = 0, pretend = 0, frame = 0
	@ frame_needed = 0, uses_anonymous_args = 0
	@ link register save eliminated.
	ldr	r3, [r0, #28]
	cmp	r1, #0
	ldr	r0, [r0, #12]
	ldr	r1, [r3, #200]
	add	r1, r1, #288
	bne	.L1646
	b	_clear_bit(PLT)
.L1646:
	b	_set_bit(PLT)
	.fnend
	.size	f_midi_out_trigger, .-f_midi_out_trigger
	.align	2
	.type	gctrl_disconnect_w, %function
gctrl_disconnect_w:
	.fnstart
	@ args = 0, pretend = 0, frame = 0
	@ frame_needed = 0, uses_anonymous_args = 0
	@ link register save eliminated.
	ldr	r3, [r0, #52]
	tst	r3, #1
	bne	.L1649
	bx	lr
.L1649:
	add	r1, r0, #52
	mov	r0, #0
	b	_clear_bit(PLT)
	.fnend
	.size	gctrl_disconnect_w, .-gctrl_disconnect_w
	.align	2
	.type	ghsic_data_disconnect_w, %function
ghsic_data_disconnect_w:
	.fnstart
	@ args = 0, pretend = 0, frame = 0
	@ frame_needed = 0, uses_anonymous_args = 0
	@ link register save eliminated.
	ldr	r3, [r0, #76]
	tst	r3, #1
	bne	.L1652
	bx	lr
.L1652:
	add	r1, r0, #76
	mov	r0, #0
	b	_clear_bit(PLT)
	.fnend
	.size	ghsic_data_disconnect_w, .-ghsic_data_disconnect_w
	.align	2
	.type	ghsuart_ctrl_remove, %function
ghsuart_ctrl_remove:
	.fnstart
	@ args = 0, pretend = 0, frame = 0
	@ frame_needed = 0, uses_anonymous_args = 0
	ldr	r3, .L1662
	strd	r4, [sp, #-16]!
	.save {r4, r5, r6, lr}
	mov	r1, #84
	str	r6, [sp, #8]
	str	lr, [sp, #12]
	ldr	r2, [r0, #4]
.LPIC295:
	add	r3, pc, r3
	mla	r3, r1, r2, r3
	ldr	r4, [r3, #1880]
	add	r6, r4, #8
	mov	r0, r6
	bl	_raw_spin_lock_irqsave(PLT)
	ldr	r5, [r4, #12]
	mov	r1, r0
	mov	r0, r6
	cmp	r5, #0
	beq	.L1661
	bl	_raw_spin_unlock_irqrestore(PLT)
	ldr	r3, [r5, #96]
	cmp	r3, #0
	beq	.L1656
	mov	r0, r5
	blx	r3
.L1656:
	add	r4, r4, #88
	mov	r0, #0
	mov	r1, r4
	bl	_clear_bit(PLT)
	mov	r1, r4
	mov	r0, #2
	bl	_clear_bit(PLT)
.L1655:
	mov	r1, r4
	mov	r0, #1
	bl	_clear_bit(PLT)
	ldrd	r4, [sp]
	mov	r0, #0
	ldr	r6, [sp, #8]
	add	sp, sp, #12
	ldr	pc, [sp], #4
.L1661:
	bl	_raw_spin_unlock_irqrestore(PLT)
	add	r4, r4, #88
	b	.L1655
.L1663:
	.align	2
.L1662:
	.word	.LANCHOR2-(.LPIC295+8)
	.fnend
	.size	ghsuart_ctrl_remove, .-ghsuart_ctrl_remove
	.align	2
	.type	f_midi_in_trigger, %function
f_midi_in_trigger:
	.fnstart
	@ args = 0, pretend = 0, frame = 0
	@ frame_needed = 0, uses_anonymous_args = 0
	ldr	r2, [r0, #28]
	ldr	r3, [r0, #12]
	ldr	r2, [r2, #200]
	add	r3, r3, #56
	ldr	r3, [r2, r3, asl #2]
	cmp	r3, #0
	bxeq	lr
	cmp	r1, #0
	str	r1, [r3, #4]
	bxeq	lr
	.save {r4, lr}
	str	r4, [sp, #-8]!
	mov	r0, #0
	add	r1, r2, #296
	str	lr, [sp, #4]
	add	r4, r2, #292
	bl	_test_and_set_bit(PLT)
	cmp	r0, #0
	beq	.L1673
	ldr	r4, [sp]
	add	sp, sp, #4
	ldr	pc, [sp], #4
.L1673:
	mov	r0, r4
	ldr	lr, [sp, #4]
	ldr	r4, [sp]
	add	sp, sp, #8
	b	__tasklet_hi_schedule(PLT)
	.fnend
	.size	f_midi_in_trigger, .-f_midi_in_trigger
	.align	2
	.type	ghsuart_send_cpkt_tomodem, %function
ghsuart_send_cpkt_tomodem:
	.fnstart
	@ args = 0, pretend = 0, frame = 0
	@ frame_needed = 0, uses_anonymous_args = 0
	ldr	r3, .L1689
	strd	r4, [sp, #-24]!
	.save {r4, r5, r6, r7, r8, lr}
	mov	r5, r2
	strd	r6, [sp, #8]
	str	r8, [sp, #16]
	str	lr, [sp, #20]
.LPIC296:
	add	r3, pc, r3
	ldr	r2, [r3, #1876]
	cmp	r0, r2
	bcs	.L1685
	mov	r2, #84
	mla	r0, r2, r0, r3
	ldr	r4, [r0, #1880]
	cmp	r4, #0
	beq	.L1686
	ldr	r0, [r4, #88]
	ubfx	r0, r0, #2, #1
	cmp	r0, #0
	beq	.L1687
	mov	r6, r1
	mov	r0, r5
	mov	r1, #32
	bl	__kmalloc(PLT)
	subs	r7, r0, #0
	mvneq	r0, #11
	beq	.L1676
	mov	r2, r5
	mov	r1, r6
	ldr	r5, .L1689+4
	bl	memcpy(PLT)
	ldr	r0, .L1689+8
.LPIC303:
	add	r5, pc, r5
	add	r5, r5, #536
.LPIC302:
	add	r0, pc, r0
	mov	r1, r5
	add	r0, r0, #236
	bl	___ratelimit(PLT)
	cmp	r0, #0
	bne	.L1688
.L1679:
	ldr	r3, [r4, #104]
	mov	r0, r7
	add	r3, r3, #1
	str	r3, [r4, #104]
	bl	kfree(PLT)
	mvn	r0, #18
.L1676:
	ldrd	r4, [sp]
	ldrd	r6, [sp, #8]
	ldr	r8, [sp, #16]
	add	sp, sp, #20
	ldr	pc, [sp], #4
.L1687:
	ldr	r3, [r4, #104]
	add	r3, r3, #1
	str	r3, [r4, #104]
	b	.L1676
.L1686:
	ldr	r1, .L1689+12
	ldr	r0, .L1689+16
.LPIC301:
	add	r1, pc, r1
.LPIC300:
	add	r0, pc, r0
	add	r1, r1, #536
	bl	printk(PLT)
	mvn	r0, #18
	b	.L1676
.L1685:
	ldr	r1, .L1689+20
	mov	r2, r0
	ldr	r0, .L1689+24
.LPIC298:
	add	r1, pc, r1
.LPIC297:
	add	r0, pc, r0
	add	r1, r1, #536
	bl	printk(PLT)
	mvn	r0, #18
	b	.L1676
.L1688:
	ldr	r0, .L1689+28
	mov	r1, r5
	mvn	r2, #18
.LPIC304:
	add	r0, pc, r0
	bl	printk(PLT)
	b	.L1679
.L1690:
	.align	2
.L1689:
	.word	.LANCHOR2-(.LPIC296+8)
	.word	.LANCHOR3-(.LPIC303+8)
	.word	.LANCHOR1-(.LPIC302+8)
	.word	.LANCHOR3-(.LPIC301+8)
	.word	.LC27-(.LPIC300+8)
	.word	.LANCHOR3-(.LPIC298+8)
	.word	.LC31-(.LPIC297+8)
	.word	.LC85-(.LPIC304+8)
	.fnend
	.size	ghsuart_send_cpkt_tomodem, .-ghsuart_send_cpkt_tomodem
	.align	2
	.type	rmnet_smd_disable, %function
rmnet_smd_disable:
	.fnstart
	@ args = 0, pretend = 0, frame = 0
	@ frame_needed = 0, uses_anonymous_args = 0
	.save {r4, lr}
	str	r4, [sp, #-8]!
	mov	r4, r0
	mov	r3, #0
	str	lr, [sp, #4]
	ldr	r0, [r0, #88]
	str	r3, [r4, #160]
	ldr	r3, [r0, #8]
	ldr	r2, [r3, #36]
	cmp	r2, #0
	beq	.L1692
	blx	r2
	ldr	r0, [r4, #88]
	ldr	r3, [r0, #8]
.L1692:
	ldr	r3, [r3, #4]
	blx	r3
	ldr	r0, [r4, #80]
	ldr	r3, [r0, #8]
	ldr	r2, [r3, #36]
	cmp	r2, #0
	beq	.L1693
	blx	r2
	ldr	r0, [r4, #80]
	ldr	r3, [r0, #8]
.L1693:
	ldr	r3, [r3, #4]
	blx	r3
	ldr	r0, [r4, #84]
	ldr	r3, [r0, #8]
	ldr	r2, [r3, #36]
	cmp	r2, #0
	beq	.L1694
	blx	r2
	ldr	r0, [r4, #84]
	ldr	r3, [r0, #8]
.L1694:
	ldr	r3, [r3, #4]
	blx	r3
	ldr	lr, [sp, #4]
	add	r1, r4, #400
	ldr	r0, [r4, #380]
	ldr	r4, [sp]
	add	sp, sp, #8
	b	queue_work(PLT)
	.fnend
	.size	rmnet_smd_disable, .-rmnet_smd_disable
	.align	2
	.type	rmnet_smd_ch_probe, %function
rmnet_smd_ch_probe:
	.fnstart
	@ args = 0, pretend = 0, frame = 0
	@ frame_needed = 0, uses_anonymous_args = 0
	ldr	r3, .L1707
	.save {r4, lr}
	str	r4, [sp, #-8]!
	str	lr, [sp, #4]
.LPIC306:
	add	r3, pc, r3
	ldr	r1, [r3, #3408]
	ldr	r0, [r1, #380]
	add	r1, r1, #384
	bl	queue_work(PLT)
	ldr	r4, [sp]
	add	sp, sp, #4
	mov	r0, #0
	ldr	pc, [sp], #4
.L1708:
	.align	2
.L1707:
	.word	.LANCHOR2-(.LPIC306+8)
	.fnend
	.size	rmnet_smd_ch_probe, .-rmnet_smd_ch_probe
	.align	2
	.type	rmnet_sdio_setup, %function
rmnet_sdio_setup:
	.fnstart
	@ args = 0, pretend = 0, frame = 8
	@ frame_needed = 0, uses_anonymous_args = 0
	strd	r4, [sp, #-36]!
	.save {r4, r5, r6, r7, r8, r9, r10, fp, lr}
	strd	r6, [sp, #8]
	strd	r8, [sp, #16]
	strd	r10, [sp, #24]
	str	lr, [sp, #32]
	ldr	r2, [r0, #20]
	.pad #28
	sub	sp, sp, #28
	ldr	r3, [r0, #184]
	ldrh	r9, [r1, #4]	@ unaligned
	ldrh	r8, [r1, #2]	@ unaligned
	ldr	r7, [r2, #24]
	cmp	r3, #0
	ldrh	r6, [r1, #6]	@ unaligned
	ldr	r5, [r7, #4]
	beq	.L1719
	mov	r4, r0
	ldrb	r3, [r1, #1]	@ zero_extendqisi2
	movw	r2, #8482
	ldrb	r0, [r1]	@ zero_extendqisi2
	orr	r3, r3, r0, asl #8
	cmp	r3, r2
	beq	.L1711
	movw	r2, #41217
	cmp	r3, r2
	beq	.L1712
	cmp	r3, #8448
	beq	.L1725
.L1721:
	mvn	r0, #94
.L1723:
	add	sp, sp, #28
	@ sp needed
	ldrd	r4, [sp]
	ldrd	r6, [sp, #8]
	ldrd	r8, [sp, #16]
	ldrd	r10, [sp, #24]
	add	sp, sp, #32
	ldr	pc, [sp], #4
.L1712:
	cmp	r8, #0
	bne	.L1721
	add	fp, r4, #180
	str	r1, [sp, #20]
	mov	r0, fp
	bl	_raw_spin_lock(PLT)
	mov	r3, r4
	ldr	r1, [sp, #20]
	ldr	r10, [r3, #112]!
	cmp	r10, r3
	beq	.L1726
	ldr	r3, [r10, #4]
	mov	ip, #256
	mov	r1, #512
	ldr	r2, [r10]
	mov	r0, fp
	mov	r9, r10
	str	r3, [r2, #4]
	str	r2, [r3]
	str	ip, [r10]
	str	r1, [r10, #4]
	ldr	r3, [r4, #120]
	sub	r3, r3, #1
	str	r3, [r4, #120]
	bl	_raw_spin_unlock(PLT)
	ldr	r3, [r10, #-4]
	ldr	r1, [r10, #-8]
	ldr	r0, [r5]
	cmp	r6, r3
	movcs	r8, r3
	movcc	r8, r6
	mov	r2, r8
	bl	memcpy(PLT)
	ldr	r3, .L1727
	str	r4, [r5, #32]
.LPIC309:
	add	r3, pc, r3
	str	r3, [r5, #28]
	ldr	r0, [r9, #-8]!
	bl	kfree(PLT)
	mov	r0, r9
	bl	kfree(PLT)
	ldr	r3, [r4, #356]
	cmp	r8, r6
	mov	r6, r8
	movge	ip, #0
	movlt	ip, #1
	add	r3, r3, #1
	str	r3, [r4, #356]
	b	.L1714
.L1725:
	ldr	r3, .L1727+4
	mov	ip, #0
	str	r4, [r5, #32]
.LPIC307:
	add	r3, pc, r3
	str	r3, [r5, #28]
.L1714:
	ldrb	r3, [r5, #26]	@ zero_extendqisi2
	str	r6, [r5, #4]
	mov	r1, r5
	mov	r2, #32
	bfi	r3, ip, #1, #1
	strb	r3, [r5, #26]
	ldr	r3, [r7]
	ldr	r0, [r3, #4]
	ldr	r3, [r0, #8]
	ldr	r3, [r3, #16]
	blx	r3
	subs	r4, r0, #0
	blt	.L1718
	mov	r0, r4
	b	.L1723
.L1711:
	ldr	r3, [r4, #320]
	tst	r8, #1
	add	r1, r4, #324
	ldr	r0, [r4, #192]
	orrne	r3, r3, #2
	biceq	r3, r3, #2
	str	r3, [r4, #320]
	bl	queue_work(PLT)
	adds	ip, r6, #0
	mov	r6, #0
	movne	ip, #1
	b	.L1714
.L1718:
	ldr	r0, [r7]
	mov	r2, r4
	ldr	r1, .L1727+8
	add	r0, r0, #32
.LPIC310:
	add	r1, pc, r1
	bl	dev_err(PLT)
	mov	r0, r4
	b	.L1723
.L1719:
	mvn	r0, #106
	b	.L1723
.L1726:
	ldr	r0, [r7]
	str	r8, [sp]
	ldrb	r2, [r1]	@ zero_extendqisi2
	str	r9, [sp, #4]
	ldrb	r3, [r1, #1]	@ zero_extendqisi2
	str	r6, [sp, #8]
	ldr	r1, .L1727+12
	add	r0, r0, #32
.LPIC308:
	add	r1, pc, r1
	bl	_dev_info(PLT)
	mov	r0, fp
	bl	_raw_spin_unlock(PLT)
	mvn	r0, #94
	b	.L1723
.L1728:
	.align	2
.L1727:
	.word	rmnet_sdio_response_complete-(.LPIC309+8)
	.word	rmnet_sdio_command_complete-(.LPIC307+8)
	.word	.LC62-(.LPIC310+8)
	.word	.LC86-(.LPIC308+8)
	.fnend
	.size	rmnet_sdio_setup, .-rmnet_sdio_setup
	.align	2
	.type	gs_unthrottle, %function
gs_unthrottle:
	.fnstart
	@ args = 0, pretend = 0, frame = 0
	@ frame_needed = 0, uses_anonymous_args = 0
	strd	r4, [sp, #-16]!
	.save {r4, r5, r6, lr}
	str	r6, [sp, #8]
	str	lr, [sp, #12]
	ldr	r4, [r0, #280]
	cmp	r4, #0
	beq	.L1729
	mov	r0, r4
	bl	_raw_spin_lock_irqsave(PLT)
	ldr	r3, [r4, #4]
	mov	r5, r0
	cmp	r3, #0
	beq	.L1731
	ldr	r3, .L1736
	add	r1, r4, #60
.LPIC311:
	add	r3, pc, r3
	ldr	r0, [r3, #3412]
	bl	queue_work(PLT)
.L1731:
	mov	r0, r4
	mov	r1, r5
	ldr	r6, [sp, #8]
	ldrd	r4, [sp]
	ldr	lr, [sp, #12]
	add	sp, sp, #16
	b	_raw_spin_unlock_irqrestore(PLT)
.L1729:
	ldrd	r4, [sp]
	ldr	r6, [sp, #8]
	add	sp, sp, #12
	ldr	pc, [sp], #4
.L1737:
	.align	2
.L1736:
	.word	.LANCHOR2-(.LPIC311+8)
	.fnend
	.size	gs_unthrottle, .-gs_unthrottle
	.align	2
	.type	gs_read_complete, %function
gs_read_complete:
	.fnstart
	@ args = 0, pretend = 0, frame = 0
	@ frame_needed = 0, uses_anonymous_args = 0
	strd	r4, [sp, #-24]!
	.save {r4, r5, r6, r7, r8, lr}
	mov	r5, r1
	strd	r6, [sp, #8]
	str	r8, [sp, #16]
	str	lr, [sp, #20]
	ldr	r4, [r0]
	mov	r0, r4
	add	r7, r4, #48
	bl	_raw_spin_lock_irqsave(PLT)
	mov	r6, r0
	ldr	r3, [r4, #128]
	add	lr, r5, #36
	ldr	r0, [r5, #48]
	add	r1, r4, #60
	ldr	r2, .L1740
	ldr	ip, [r4, #52]
	str	lr, [r4, #52]
	add	r3, r3, r0
.LPIC312:
	add	r2, pc, r2
	str	r3, [r4, #128]
	ldr	r0, [r2, #3412]
	str	r7, [r5, #36]
	str	ip, [r5, #40]
	str	lr, [ip]
	bl	queue_work(PLT)
	ldr	r8, [sp, #16]
	mov	r0, r4
	mov	r1, r6
	ldrd	r4, [sp]
	ldrd	r6, [sp, #8]
	ldr	lr, [sp, #20]
	add	sp, sp, #24
	b	_raw_spin_unlock_irqrestore(PLT)
.L1741:
	.align	2
.L1740:
	.word	.LANCHOR2-(.LPIC312+8)
	.fnend
	.size	gs_read_complete, .-gs_read_complete
	.align	2
	.global	gsdio_write_complete
	.type	gsdio_write_complete, %function
gsdio_write_complete:
	.fnstart
	@ args = 0, pretend = 0, frame = 0
	@ frame_needed = 0, uses_anonymous_args = 0
	strd	r4, [sp, #-24]!
	.save {r4, r5, r6, r7, r8, lr}
	strd	r6, [sp, #8]
	str	r8, [sp, #16]
	str	lr, [sp, #20]
	ldr	r4, [r0]
	.pad #8
	sub	sp, sp, #8
	cmp	r4, #0
	beq	.L1754
	add	r7, r4, #4
	mov	r6, r0
	mov	r0, r7
	mov	r5, r1
	bl	_raw_spin_lock_irqsave(PLT)
	mov	r3, r4
	add	r2, r5, #36
	ldr	r1, [r3, #52]!
	mov	r8, r0
	str	r2, [r1, #4]
	str	r1, [r5, #36]
	str	r3, [r5, #40]
	ldr	r3, [r4, #76]
	str	r2, [r4, #52]
	add	r3, r3, #1
	str	r3, [r4, #76]
	ldr	r1, [r5, #44]
	cmn	r1, #108
	beq	.L1745
	cmp	r1, #0
	bne	.L1755
.L1746:
	ldr	r3, .L1756
	add	r1, r4, #60
.LPIC317:
	add	r3, pc, r3
	ldr	r0, [r3, #3416]
	bl	queue_work(PLT)
.L1745:
	mov	r0, r7
	mov	r1, r8
	add	sp, sp, #8
	@ sp needed
	ldrd	r4, [sp]
	ldrd	r6, [sp, #8]
	ldr	r8, [sp, #16]
	ldr	lr, [sp, #20]
	add	sp, sp, #24
	b	_raw_spin_unlock_irqrestore(PLT)
.L1755:
	ldr	ip, [r6, #4]
	mov	r2, r4
	ldr	r3, [r4]
	str	r1, [sp, #4]
	ldr	r1, .L1756+4
	ldr	r0, .L1756+8
	str	ip, [sp]
.LPIC316:
	add	r1, pc, r1
	add	r1, r1, #564
.LPIC315:
	add	r0, pc, r0
	bl	printk(PLT)
	b	.L1746
.L1754:
	ldr	r1, .L1756+12
	ldr	r0, .L1756+16
.LPIC314:
	add	r1, pc, r1
.LPIC313:
	add	r0, pc, r0
	add	r1, r1, #564
	add	sp, sp, #8
	@ sp needed
	ldrd	r4, [sp]
	ldrd	r6, [sp, #8]
	ldr	r8, [sp, #16]
	ldr	lr, [sp, #20]
	add	sp, sp, #24
	b	printk(PLT)
.L1757:
	.align	2
.L1756:
	.word	.LANCHOR2-(.LPIC317+8)
	.word	.LANCHOR3-(.LPIC316+8)
	.word	.LC87-(.LPIC315+8)
	.word	.LANCHOR3-(.LPIC314+8)
	.word	.LC27-(.LPIC313+8)
	.fnend
	.size	gsdio_write_complete, .-gsdio_write_complete
	.align	2
	.global	gsdio_ctrl_notify_modem
	.type	gsdio_ctrl_notify_modem, %function
gsdio_ctrl_notify_modem:
	.fnstart
	@ args = 0, pretend = 0, frame = 0
	@ frame_needed = 0, uses_anonymous_args = 0
	ldr	ip, .L1776
.LPIC318:
	add	ip, pc, ip
	ldr	r3, [ip, #92]
	cmp	r1, r3
	bcs	.L1773
	cmp	r0, #0
	.save {r4, lr}
	str	r4, [sp, #-8]!
	str	lr, [sp, #4]
	mov	lr, r0
	beq	.L1774
	mov	r4, #108
	tst	r2, #1
	movne	r3, #2
	moveq	r3, #0
	mla	r1, r4, r1, ip
	ldr	r4, [r1, #120]
	ldr	r2, [r4, #176]
	cmp	r3, r2
	beq	.L1758
	ldr	r2, [r4, #108]
	str	r3, [r4, #176]
	cmp	r2, #0
	beq	.L1775
	cmp	r3, #0
	beq	.L1764
	ldr	r3, [r0, #128]
	cmp	r3, #0
	beq	.L1764
	ldr	r1, [r4, #172]
	blx	r3
.L1764:
	ldr	r3, .L1776+4
	add	r1, r4, #80
	ldr	lr, [sp, #4]
	ldr	r4, [sp]
	add	sp, sp, #8
.LPIC326:
	add	r3, pc, r3
	ldr	r0, [r3, #3416]
	b	queue_work(PLT)
.L1758:
	ldr	r4, [sp]
	add	sp, sp, #4
	ldr	pc, [sp], #4
.L1773:
	ldr	r3, .L1776+8
	mov	r2, r1
	ldr	r0, .L1776+12
.LPIC320:
	add	r3, pc, r3
.LPIC319:
	add	r0, pc, r0
	add	r1, r3, #588
	b	printk(PLT)
.L1774:
	ldr	r1, .L1776+16
	ldr	r0, .L1776+20
	ldr	r4, [sp]
	ldr	lr, [sp, #4]
	add	sp, sp, #8
.LPIC322:
	add	r1, pc, r1
.LPIC321:
	add	r0, pc, r0
	add	r1, r1, #588
	b	printk(PLT)
.L1775:
	ldr	r1, .L1776+24
	mov	r2, r4
	ldr	r0, .L1776+28
	ldr	r3, [r4]
	ldr	lr, [sp, #4]
.LPIC325:
	add	r1, pc, r1
	ldr	r4, [sp]
	add	sp, sp, #8
.LPIC324:
	add	r0, pc, r0
	add	r1, r1, #588
	b	printk(PLT)
.L1777:
	.align	2
.L1776:
	.word	.LANCHOR2-(.LPIC318+8)
	.word	.LANCHOR2-(.LPIC326+8)
	.word	.LANCHOR3-(.LPIC320+8)
	.word	.LC88-(.LPIC319+8)
	.word	.LANCHOR3-(.LPIC322+8)
	.word	.LC89-(.LPIC321+8)
	.word	.LANCHOR3-(.LPIC325+8)
	.word	.LC90-(.LPIC324+8)
	.fnend
	.size	gsdio_ctrl_notify_modem, .-gsdio_ctrl_notify_modem
	.align	2
	.type	ghsuart_ctrl_probe, %function
ghsuart_ctrl_probe:
	.fnstart
	@ args = 0, pretend = 0, frame = 0
	@ frame_needed = 0, uses_anonymous_args = 0
	ldr	r3, .L1784
	strd	r4, [sp, #-16]!
	.save {r4, r5, r6, lr}
	mov	r1, #84
	str	r6, [sp, #8]
	str	lr, [sp, #12]
	ldr	r2, [r0, #4]
	mov	r0, #1
.LPIC327:
	add	r3, pc, r3
	mla	r3, r1, r2, r3
	ldr	r4, [r3, #1880]
	add	r1, r4, #88
	add	r5, r4, #8
	bl	_set_bit(PLT)
	mov	r0, r5
	bl	_raw_spin_lock_irqsave(PLT)
	ldr	r3, [r4, #12]
	mov	r6, r0
	cmp	r3, #0
	beq	.L1779
	ldr	r0, [r4, #32]
	add	r1, r4, #36
	bl	queue_work(PLT)
.L1779:
	mov	r0, r5
	mov	r1, r6
	bl	_raw_spin_unlock_irqrestore(PLT)
	ldrd	r4, [sp]
	mov	r0, #0
	ldr	r6, [sp, #8]
	add	sp, sp, #12
	ldr	pc, [sp], #4
.L1785:
	.align	2
.L1784:
	.word	.LANCHOR2-(.LPIC327+8)
	.fnend
	.size	ghsuart_ctrl_probe, .-ghsuart_ctrl_probe
	.align	2
	.type	ghsuart_data_probe, %function
ghsuart_data_probe:
	.fnstart
	@ args = 0, pretend = 0, frame = 0
	@ frame_needed = 0, uses_anonymous_args = 0
	ldr	r3, .L1794
	.save {r4, lr}
	str	r4, [sp, #-8]!
	str	lr, [sp, #4]
	ldr	r2, [r0, #4]
.LPIC328:
	add	r3, pc, r3
	ldr	r1, [r3, #2048]
	cmp	r2, r1
	bcs	.L1793
	mov	r1, #84
	mov	r0, #1
	mla	r2, r1, r2, r3
	ldr	r4, [r2, #2052]
	add	r1, r4, #188
	bl	_set_bit(PLT)
	ldr	r0, [r4, #4]
	cmp	r0, #0
	beq	.L1788
	ldr	r0, [r4, #108]
	add	r1, r4, #112
	bl	queue_work(PLT)
	mov	r0, #0
.L1788:
	ldr	r4, [sp]
	add	sp, sp, #4
	ldr	pc, [sp], #4
.L1793:
	ldr	r1, .L1794+4
	ldr	r0, .L1794+8
.LPIC330:
	add	r1, pc, r1
.LPIC329:
	add	r0, pc, r0
	add	r1, r1, #612
	bl	printk(PLT)
	mvn	r0, #21
	b	.L1788
.L1795:
	.align	2
.L1794:
	.word	.LANCHOR2-(.LPIC328+8)
	.word	.LANCHOR3-(.LPIC330+8)
	.word	.LC91-(.LPIC329+8)
	.fnend
	.size	ghsuart_data_probe, .-ghsuart_data_probe
	.align	2
	.type	rmnet_smd_debug_read_stats, %function
rmnet_smd_debug_read_stats:
	.fnstart
	@ args = 0, pretend = 0, frame = 184
	@ frame_needed = 0, uses_anonymous_args = 0
	strd	r4, [sp, #-36]!
	.save {r4, r5, r6, r7, r8, r9, r10, fp, lr}
	ldr	r5, .L1804
	strd	r6, [sp, #8]
	strd	r8, [sp, #16]
	strd	r10, [sp, #24]
	str	lr, [sp, #32]
	ldr	r4, [r0, #124]
	.pad #260
	sub	sp, sp, #260
	str	r1, [sp, #84]
	strd	r2, [sp, #88]
	add	r7, r4, #252
	ldrd	r2, [r4, #252]
	add	r6, r4, #316
	ldrd	r0, [r7, #8]
	ldrd	r8, [r7, #16]
	ldrd	r10, [r7, #24]
	strd	r2, [sp, #128]
	ldrd	r2, [r7, #32]
	strd	r0, [sp, #136]
	ldrd	r0, [r7, #40]
	strd	r8, [sp, #144]
	ldrd	r8, [r7, #48]
	strd	r10, [sp, #152]
	ldrd	r10, [r7, #56]
	strd	r2, [sp, #160]
	ldrd	r2, [r6]
	strd	r0, [sp, #168]
	ldrd	r0, [r6, #8]
	strd	r8, [sp, #176]
	ldrd	r8, [r6, #16]
	strd	r10, [sp, #184]
	ldrd	r10, [r6, #24]
	strd	r2, [sp, #192]
	ldrd	r2, [r6, #32]
	strd	r0, [sp, #200]
	ldrd	r0, [r6, #40]
	strd	r8, [sp, #208]
	ldrd	r8, [r6, #48]
.LPIC334:
	ldr	r5, [pc, r5]		@ tls_load_dot_plus_eight
	strd	r10, [sp, #216]
	ldrd	r6, [r6, #56]
	strd	r2, [sp, #224]
	strd	r0, [sp, #232]
	strd	r8, [sp, #240]
	ldr	r0, [r5, #36]
	strd	r6, [sp, #248]
	cmp	r0, #0
	beq	.L1799
	movw	r1, #32976
	bl	kmem_cache_alloc(PLT)
	subs	r5, r0, #0
	beq	.L1803
.L1797:
	add	r10, r4, #156
	mov	r0, r10
	bl	_raw_spin_lock_irqsave(PLT)
	ldr	fp, [r4, #420]
	str	r0, [sp, #96]
	ldr	r9, [r4, #416]
	ldr	r3, [r4, #432]
	ldr	ip, [r4, #444]
	ldr	r1, [r4, #160]
	rsb	r2, r9, fp
	ldr	lr, [sp, #236]
	str	r3, [sp, #72]
	ldr	r3, [sp, #172]
	str	r2, [sp, #108]
	ldr	r2, [r4, #440]
	ldr	r0, [r4, #252]
	str	ip, [sp, #80]
	ldr	r6, [r4, #436]
	str	lr, [sp, #100]
	str	r3, [sp, #124]
	ldr	r7, [r4, #428]
	str	r2, [sp, #76]
	ldr	r8, [r4, #424]
	str	r1, [sp, #104]
	bl	smd_read_avail(PLT)
	str	r0, [sp, #120]
	ldr	r0, [r4, #252]
	bl	smd_write_avail(PLT)
	str	r0, [sp, #112]
	ldr	r0, [r4, #316]
	bl	smd_read_avail(PLT)
	str	r0, [sp, #116]
	ldr	r0, [r4, #316]
	rsb	r4, r7, r8
	bl	smd_write_avail(PLT)
	ldr	r3, [sp, #72]
	str	r6, [sp, #32]
	mov	r1, #512
	ldr	r2, [sp, #120]
	str	r7, [sp, #24]
	ldr	ip, [sp, #80]
	str	r0, [sp, #68]
	mov	r0, r5
	ldr	r7, [sp, #112]
	str	r4, [sp, #28]
	rsb	lr, r3, r6
	ldr	r6, [sp, #72]
	str	r9, [sp, #12]
	str	r2, [sp, #56]
	ldr	r2, [sp, #76]
	str	lr, [sp, #40]
	ldr	lr, [sp, #100]
	str	r7, [sp, #60]
	ldr	r7, [sp, #116]
	str	r6, [sp, #36]
	ldr	r6, [sp, #76]
	rsb	ip, ip, r2
	ldr	r2, .L1804+4
	str	r8, [sp, #20]
	ldr	r3, [sp, #124]
	str	lr, [sp]
	str	ip, [sp, #52]
	ldr	ip, [sp, #104]
	str	r6, [sp, #44]
	ldr	r6, [sp, #80]
.LPIC333:
	add	r2, pc, r2
	str	r7, [sp, #64]
	str	fp, [sp, #8]
	str	ip, [sp, #4]
	str	r6, [sp, #48]
	ldr	r6, [sp, #108]
	str	r6, [sp, #16]
	bl	scnprintf(PLT)
	mov	r4, r0
	ldr	r1, [sp, #96]
	mov	r0, r10
	bl	_raw_spin_unlock_irqrestore(PLT)
	str	r4, [sp]
	ldrd	r0, [sp, #84]
	mov	r3, r5
	ldr	r2, [sp, #92]
	bl	simple_read_from_buffer(PLT)
	mov	r4, r0
	mov	r0, r5
	bl	kfree(PLT)
	mov	r0, r4
.L1798:
	add	sp, sp, #260
	@ sp needed
	ldrd	r4, [sp]
	ldrd	r6, [sp, #8]
	ldrd	r8, [sp, #16]
	ldrd	r10, [sp, #24]
	add	sp, sp, #32
	ldr	pc, [sp], #4
.L1799:
	mov	r5, #16
	b	.L1797
.L1803:
	mvn	r0, #11
	b	.L1798
.L1805:
	.align	2
.L1804:
	.word	kmalloc_caches(GOT_PREL)+(.-(.LPIC334+8))
	.word	.LC92-(.LPIC333+8)
	.fnend
	.size	rmnet_smd_debug_read_stats, .-rmnet_smd_debug_read_stats
	.align	2
	.type	rmnet_sdio_read_stats, %function
rmnet_sdio_read_stats:
	.fnstart
	@ args = 0, pretend = 0, frame = 0
	@ frame_needed = 0, uses_anonymous_args = 0
	ldr	ip, .L1814
	strd	r4, [sp, #-32]!
	.save {r4, r5, r6, r7, r8, r9, r10, lr}
	strd	r8, [sp, #16]
	mov	r9, r1
	mov	r8, r2
	strd	r6, [sp, #8]
	mov	r7, r3
	str	r10, [sp, #24]
.LPIC337:
	ldr	ip, [pc, ip]		@ tls_load_dot_plus_eight
	str	lr, [sp, #28]
	.pad #64
	sub	sp, sp, #64
	ldr	r4, [r0, #124]
	ldr	r0, [ip, #40]
	cmp	r0, #0
	beq	.L1809
	movw	r1, #32976
	bl	kmem_cache_alloc(PLT)
	subs	r5, r0, #0
	beq	.L1813
.L1807:
	add	r6, r4, #180
	mov	r0, r6
	bl	_raw_spin_lock_irqsave(PLT)
	ldr	ip, [r4, #132]
	mov	r10, r0
	mov	r1, #4096
	ldr	lr, [r4, #188]
	mov	r0, r5
	ldr	r3, [r4, #344]
	ldr	r2, .L1814+4
	str	ip, [sp]
	ldr	ip, [r4, #144]
.LPIC336:
	add	r2, pc, r2
	str	ip, [sp, #4]
	ldr	ip, [r4, #352]
	str	ip, [sp, #8]
	ldr	ip, [r4, #348]
	str	ip, [sp, #12]
	ldr	ip, [r4, #160]
	str	ip, [sp, #16]
	ldr	ip, [r4, #172]
	str	ip, [sp, #20]
	ldr	ip, [r4, #316]
	str	ip, [sp, #24]
	ldr	ip, [r4, #360]
	str	ip, [sp, #28]
	ldr	ip, [r4, #108]
	str	ip, [sp, #32]
	ldr	ip, [r4, #320]
	str	ip, [sp, #36]
	ldr	ip, [r4, #356]
	str	ip, [sp, #40]
	ldr	ip, [r4, #120]
	str	lr, [sp, #48]
	str	ip, [sp, #44]
	ldr	ip, [r4, #308]
	str	ip, [sp, #52]
	ldr	ip, [r4, #312]
	str	ip, [sp, #56]
	bl	scnprintf(PLT)
	mov	r4, r0
	mov	r1, r10
	mov	r0, r6
	bl	_raw_spin_unlock_irqrestore(PLT)
	str	r4, [sp]
	mov	r1, r8
	mov	r2, r7
	mov	r3, r5
	mov	r0, r9
	bl	simple_read_from_buffer(PLT)
	mov	r4, r0
	mov	r0, r5
	bl	kfree(PLT)
	mov	r0, r4
.L1808:
	add	sp, sp, #64
	@ sp needed
	ldrd	r4, [sp]
	ldrd	r6, [sp, #8]
	ldrd	r8, [sp, #16]
	ldr	r10, [sp, #24]
	add	sp, sp, #28
	ldr	pc, [sp], #4
.L1809:
	mov	r5, #16
	b	.L1807
.L1813:
	mvn	r0, #11
	b	.L1808
.L1815:
	.align	2
.L1814:
	.word	kmalloc_caches(GOT_PREL)+(.-(.LPIC337+8))
	.word	.LC93-(.LPIC336+8)
	.fnend
	.size	rmnet_sdio_read_stats, .-rmnet_sdio_read_stats
	.align	2
	.type	debug_read_status, %function
debug_read_status:
	.fnstart
	@ args = 0, pretend = 0, frame = 8
	@ frame_needed = 0, uses_anonymous_args = 0
	ldr	ip, .L1834
	strd	r4, [sp, #-36]!
	.save {r4, r5, r6, r7, r8, r9, r10, fp, lr}
	strd	r8, [sp, #16]
	mov	r9, r2
	mov	r8, r3
	strd	r10, [sp, #24]
	mov	r10, r1
	strd	r6, [sp, #8]
.LPIC347:
	ldr	ip, [pc, ip]		@ tls_load_dot_plus_eight
	str	lr, [sp, #32]
	.pad #20
	sub	sp, sp, #20
	ldr	r4, [r0, #124]
	ldr	r0, [ip, #36]
	ldrd	r6, [r4, #4]
	cmp	r0, #0
	beq	.L1822
	movw	r1, #32976
	bl	kmem_cache_alloc(PLT)
	subs	r5, r0, #0
	beq	.L1833
.L1817:
	mov	r0, r4
	bl	_raw_spin_lock_irqsave(PLT)
	ldr	r2, .L1834+4
	str	r0, [sp, #12]
	mov	r1, #512
	ldr	r3, [r4, #128]
	mov	r0, r5
.LPIC339:
	add	r2, pc, r2
	bl	scnprintf(PLT)
	ldr	r2, .L1834+8
	mov	fp, r0
	add	r0, r5, r0
	rsb	r1, fp, #512
	ldr	r3, [r4, #132]
.LPIC340:
	add	r2, pc, r2
	bl	scnprintf(PLT)
	ldr	lr, [r4, #128]
	add	fp, fp, r0
	ldr	r3, [r4, #132]
	rsb	r1, fp, #512
	add	r0, r5, fp
	ldr	r2, .L1834+12
	rsb	r3, r3, lr
.LPIC341:
	add	r2, pc, r2
	bl	scnprintf(PLT)
	ldr	r2, .L1834+16
	add	fp, r0, fp
	rsb	r1, fp, #512
	add	r0, r5, fp
	ldr	r3, [r4, #136]
.LPIC342:
	add	r2, pc, r2
	bl	scnprintf(PLT)
	ldr	r2, .L1834+20
	add	fp, r0, fp
	rsb	r1, fp, #512
	add	r0, r5, fp
	ldr	r3, [r4, #140]
.LPIC343:
	add	r2, pc, r2
	bl	scnprintf(PLT)
	ldr	lr, [r4, #136]
	add	fp, r0, fp
	ldr	r3, [r4, #140]
	add	r0, r5, fp
	rsb	r1, fp, #512
	ldr	r2, .L1834+24
	rsb	r3, r3, lr
.LPIC344:
	add	r2, pc, r2
	bl	scnprintf(PLT)
	cmp	r7, #0
	add	fp, r0, fp
	beq	.L1819
	ldr	r2, .L1834+28
	add	r0, r5, fp
	rsb	r1, fp, #512
	ldr	r3, [r7, #164]
.LPIC345:
	add	r2, pc, r2
	bl	scnprintf(PLT)
	add	fp, fp, r0
.L1819:
	ldr	r3, [r6, #100]
	cmp	r3, #0
	beq	.L1820
	mov	r0, r6
	blx	r3
	ldr	r2, .L1834+32
	cmp	r0, #0
	rsb	r1, fp, #512
	add	r0, r5, fp
	movne	r3, #2
	moveq	r3, #0
.LPIC346:
	add	r2, pc, r2
	bl	scnprintf(PLT)
	add	fp, fp, r0
.L1820:
	mov	r0, r4
	ldr	r1, [sp, #12]
	bl	_raw_spin_unlock_irqrestore(PLT)
	str	fp, [sp]
	mov	r1, r9
	mov	r2, r8
	mov	r3, r5
	mov	r0, r10
	bl	simple_read_from_buffer(PLT)
	mov	r4, r0
	mov	r0, r5
	bl	kfree(PLT)
	mov	r0, r4
.L1818:
	add	sp, sp, #20
	@ sp needed
	ldrd	r4, [sp]
	ldrd	r6, [sp, #8]
	ldrd	r8, [sp, #16]
	ldrd	r10, [sp, #24]
	add	sp, sp, #32
	ldr	pc, [sp], #4
.L1822:
	mov	r5, #16
	b	.L1817
.L1833:
	mvn	r0, #11
	b	.L1818
.L1835:
	.align	2
.L1834:
	.word	kmalloc_caches(GOT_PREL)+(.-(.LPIC347+8))
	.word	.LC94-(.LPIC339+8)
	.word	.LC95-(.LPIC340+8)
	.word	.LC96-(.LPIC341+8)
	.word	.LC97-(.LPIC342+8)
	.word	.LC98-(.LPIC343+8)
	.word	.LC99-(.LPIC344+8)
	.word	.LC100-(.LPIC345+8)
	.word	.LC101-(.LPIC346+8)
	.fnend
	.size	debug_read_status, .-debug_read_status
	.align	2
	.type	debug_sdio_read_stats, %function
debug_sdio_read_stats:
	.fnstart
	@ args = 0, pretend = 0, frame = 24
	@ frame_needed = 0, uses_anonymous_args = 0
	ldr	r0, .L1850
	strd	r4, [sp, #-36]!
	.save {r4, r5, r6, r7, r8, r9, r10, fp, lr}
	strd	r6, [sp, #8]
	strd	r8, [sp, #16]
	strd	r10, [sp, #24]
.LPIC353:
	ldr	r0, [pc, r0]		@ tls_load_dot_plus_eight
	str	lr, [sp, #32]
	.pad #76
	sub	sp, sp, #76
	str	r1, [sp, #60]
	strd	r2, [sp, #64]
	ldr	r0, [r0, #40]
	cmp	r0, #0
	beq	.L1841
	movw	r1, #32976
	bl	kmem_cache_alloc(PLT)
	subs	r10, r0, #0
	beq	.L1849
.L1837:
	ldr	r9, .L1850+4
.LPIC349:
	add	r9, pc, r9
	ldr	r5, [r9, #92]
	cmp	r5, #0
	beq	.L1839
	ldr	r3, .L1850+8
	mov	r7, #0
	mov	r5, r7
	mov	r6, r7
.LPIC351:
	add	r3, pc, r3
	str	r3, [sp, #56]
	add	r3, r9, #96
	str	r3, [sp, #52]
.L1840:
	ldr	r3, [sp, #52]
	add	r3, r3, r7
	add	r7, r7, #108
	ldr	r4, [r3, #24]
	add	r8, r4, #4
	mov	r0, r8
	bl	_raw_spin_lock_irqsave(PLT)
	str	r4, [sp]
	ldr	lr, [r4, #180]
	mov	r3, r6
	rsb	r1, r5, #4096
	mov	fp, r0
	ldr	r2, [sp, #56]
	add	r0, r10, r5
	add	r6, r6, #1
	str	lr, [sp, #4]
	ldr	lr, [r4, #184]
	str	lr, [sp, #8]
	ldr	lr, [r4, #176]
	str	lr, [sp, #12]
	ldr	lr, [r4, #172]
	str	lr, [sp, #16]
	ldr	lr, [r4, #44]
	str	lr, [sp, #20]
	ldr	lr, [r4, #48]
	str	lr, [sp, #24]
	ldr	lr, [r4, #76]
	str	lr, [sp, #28]
	ldr	lr, [r4, #8]
	str	lr, [sp, #32]
	ldr	lr, [r4, #108]
	str	lr, [sp, #36]
	ldr	lr, [r4, #112]
	str	lr, [sp, #40]
	bl	scnprintf(PLT)
	add	r5, r5, r0
	mov	r1, fp
	mov	r0, r8
	bl	_raw_spin_unlock_irqrestore(PLT)
	ldr	r3, [r9, #92]
	cmp	r6, r3
	bcc	.L1840
.L1839:
	ldrd	r0, [sp, #60]
	mov	r3, r10
	str	r5, [sp]
	ldr	r2, [sp, #68]
	bl	simple_read_from_buffer(PLT)
	mov	r4, r0
	mov	r0, r10
	bl	kfree(PLT)
	mov	r0, r4
.L1838:
	add	sp, sp, #76
	@ sp needed
	ldrd	r4, [sp]
	ldrd	r6, [sp, #8]
	ldrd	r8, [sp, #16]
	ldrd	r10, [sp, #24]
	add	sp, sp, #32
	ldr	pc, [sp], #4
.L1841:
	mov	r10, #16
	b	.L1837
.L1849:
	mvn	r0, #11
	b	.L1838
.L1851:
	.align	2
.L1850:
	.word	kmalloc_caches(GOT_PREL)+(.-(.LPIC353+8))
	.word	.LANCHOR2-(.LPIC349+8)
	.word	.LC102-(.LPIC351+8)
	.fnend
	.size	debug_sdio_read_stats, .-debug_sdio_read_stats
	.align	2
	.type	debug_smd_read_stats, %function
debug_smd_read_stats:
	.fnstart
	@ args = 0, pretend = 0, frame = 56
	@ frame_needed = 0, uses_anonymous_args = 0
	ldr	r0, .L1869
	strd	r4, [sp, #-36]!
	.save {r4, r5, r6, r7, r8, r9, r10, fp, lr}
	strd	r6, [sp, #8]
	strd	r8, [sp, #16]
	strd	r10, [sp, #24]
.LPIC359:
	ldr	r0, [pc, r0]		@ tls_load_dot_plus_eight
	str	lr, [sp, #32]
	.pad #100
	sub	sp, sp, #100
	str	r1, [sp, #84]
	strd	r2, [sp, #88]
	ldr	r0, [r0, #36]
	cmp	r0, #0
	beq	.L1858
	movw	r1, #32976
	bl	kmem_cache_alloc(PLT)
	subs	r7, r0, #0
	beq	.L1868
.L1853:
	ldr	r3, .L1869+4
.LPIC355:
	add	r3, pc, r3
	ldr	lr, [r3, #312]
	cmp	lr, #0
	beq	.L1855
	ldr	r2, .L1869+8
	mov	r10, #0
	str	r7, [sp, #72]
	mov	fp, r10
	mov	r8, r10
	mov	r9, r3
	mov	r7, r10
.LPIC357:
	add	r2, pc, r2
	str	r2, [sp, #76]
	add	r2, r3, #316
	str	r2, [sp, #80]
.L1857:
	ldr	r3, [sp, #80]
	ldr	r2, [sp, #72]
	add	r3, r3, r7
	ldr	r4, [r3, #24]
	rsb	r3, r8, #512
	add	r10, r2, r8
	str	r3, [sp, #48]
	add	r6, r4, #4
	ldr	r5, [r4, #72]
	mov	r0, r6
	bl	_raw_spin_lock_irqsave(PLT)
	ldr	r2, [r4, #168]
	str	r0, [sp, #44]
	ldr	r3, [r5]
	str	r2, [sp, #52]
	ldr	r2, [r4, #164]
	subs	r0, r3, #0
	str	r2, [sp, #56]
	ldr	r2, [r4, #156]
	str	r2, [sp, #60]
	ldr	r2, [r4, #160]
	str	r2, [sp, #64]
	ldr	r2, [r4, #8]
	str	r2, [sp, #68]
	beq	.L1860
	bl	smd_read_avail(PLT)
	ldr	ip, [r5]
	mov	r4, r0
	cmp	ip, #0
	mov	r0, ip
	beq	.L1856
	bl	smd_write_avail(PLT)
	mov	ip, r0
.L1856:
	mov	r0, r10
	ldr	r10, [sp, #60]
	add	r7, r7, #108
	ldr	lr, [r5, #8]
	ldr	r3, [sp, #52]
	ldr	r5, [r5, #8]
	str	ip, [sp, #24]
	str	r10, [sp, #8]
	ldr	r10, [sp, #64]
	and	lr, lr, #1
	ldr	r1, [sp, #48]
	str	r4, [sp, #20]
	str	r3, [sp]
	ldr	r3, [sp, #56]
	ubfx	r5, r5, #1, #1
	ldr	r2, [sp, #76]
	str	lr, [sp, #28]
	str	r10, [sp, #12]
	ldr	r10, [sp, #68]
	str	r5, [sp, #32]
	str	r3, [sp, #4]
	mov	r3, fp
	add	fp, fp, #1
	str	r10, [sp, #16]
	bl	scnprintf(PLT)
	add	r8, r8, r0
	ldr	r1, [sp, #44]
	mov	r0, r6
	bl	_raw_spin_unlock_irqrestore(PLT)
	ldr	r3, [r9, #312]
	cmp	fp, r3
	bcc	.L1857
	ldr	r7, [sp, #72]
	mov	lr, r8
.L1855:
	str	lr, [sp]
	ldrd	r0, [sp, #84]
	mov	r3, r7
	ldr	r2, [sp, #92]
	bl	simple_read_from_buffer(PLT)
	mov	r4, r0
	mov	r0, r7
	bl	kfree(PLT)
	mov	r0, r4
.L1854:
	add	sp, sp, #100
	@ sp needed
	ldrd	r4, [sp]
	ldrd	r6, [sp, #8]
	ldrd	r8, [sp, #16]
	ldrd	r10, [sp, #24]
	add	sp, sp, #32
	ldr	pc, [sp], #4
.L1860:
	mov	r4, r3
	mov	ip, r3
	b	.L1856
.L1858:
	mov	r7, #16
	b	.L1853
.L1868:
	mvn	r0, #11
	b	.L1854
.L1870:
	.align	2
.L1869:
	.word	kmalloc_caches(GOT_PREL)+(.-(.LPIC359+8))
	.word	.LANCHOR2-(.LPIC355+8)
	.word	.LC103-(.LPIC357+8)
	.fnend
	.size	debug_smd_read_stats, .-debug_smd_read_stats
	.align	2
	.type	gbam_read_stats, %function
gbam_read_stats:
	.fnstart
	@ args = 0, pretend = 0, frame = 8
	@ frame_needed = 0, uses_anonymous_args = 0
	ldr	r0, .L1883
	strd	r4, [sp, #-36]!
	.save {r4, r5, r6, r7, r8, r9, r10, fp, lr}
	strd	r8, [sp, #16]
	mov	r9, r2
	mov	r8, r3
	strd	r10, [sp, #24]
	mov	r10, r1
	strd	r6, [sp, #8]
.LPIC364:
	ldr	r0, [pc, r0]		@ tls_load_dot_plus_eight
	str	lr, [sp, #32]
	.pad #76
	sub	sp, sp, #76
	ldr	r0, [r0, #40]
	cmp	r0, #0
	beq	.L1876
	movw	r1, #32976
	bl	kmem_cache_alloc(PLT)
	subs	r5, r0, #0
	beq	.L1882
.L1872:
	ldr	r3, .L1883+4
.LPIC361:
	add	r3, pc, r3
	ldr	r2, [r3, #2224]
	cmp	r2, #0
	movle	r4, #0
	ble	.L1874
	ldr	r4, [r3, #2228]
	cmp	r4, #0
	beq	.L1874
	add	r6, r4, #4
	add	r7, r4, #8
	mov	r0, r6
	bl	_raw_spin_lock_irqsave(PLT)
	mov	fp, r0
	mov	r0, r7
	bl	_raw_spin_lock(PLT)
	ldr	lr, [r4, #20]
	add	r3, r4, #20
	mov	r1, #1024
	ldr	ip, [r4, #20]
	str	r4, [sp]
	mov	r0, r5
	str	r3, [sp, #4]
	ldr	r2, [r4, #264]
	mov	r3, #0
	ubfx	lr, lr, #1, #1
	ubfx	ip, ip, #2, #1
	str	r2, [sp, #8]
	ldr	r2, .L1883+8
	str	ip, [sp, #68]
	ldr	ip, [r4, #260]
.LPIC363:
	add	r2, pc, r2
	str	ip, [sp, #12]
	ldr	ip, [r4, #240]
	str	ip, [sp, #16]
	ldr	ip, [r4, #244]
	str	ip, [sp, #20]
	ldr	ip, [r4, #248]
	str	ip, [sp, #24]
	ldr	ip, [r4, #268]
	str	ip, [sp, #28]
	ldr	ip, [r4, #272]
	str	ip, [sp, #32]
	ldr	ip, [r4, #276]
	str	ip, [sp, #36]
	ldr	ip, [r4, #280]
	str	ip, [sp, #40]
	ldr	ip, [r4, #44]
	str	ip, [sp, #44]
	ldr	ip, [sp, #68]
	ldr	r4, [r4, #68]
	str	lr, [sp, #52]
	str	ip, [sp, #56]
	str	r4, [sp, #48]
	bl	scnprintf(PLT)
	mov	r4, r0
	mov	r0, r7
	bl	_raw_spin_unlock(PLT)
	mov	r0, r6
	mov	r1, fp
	bl	_raw_spin_unlock_irqrestore(PLT)
.L1874:
	str	r4, [sp]
	mov	r1, r9
	mov	r2, r8
	mov	r3, r5
	mov	r0, r10
	bl	simple_read_from_buffer(PLT)
	mov	r4, r0
	mov	r0, r5
	bl	kfree(PLT)
	mov	r0, r4
.L1873:
	add	sp, sp, #76
	@ sp needed
	ldrd	r4, [sp]
	ldrd	r6, [sp, #8]
	ldrd	r8, [sp, #16]
	ldrd	r10, [sp, #24]
	add	sp, sp, #32
	ldr	pc, [sp], #4
.L1876:
	mov	r5, #16
	b	.L1872
.L1882:
	mvn	r0, #11
	b	.L1873
.L1884:
	.align	2
.L1883:
	.word	kmalloc_caches(GOT_PREL)+(.-(.LPIC364+8))
	.word	.LANCHOR2-(.LPIC361+8)
	.word	.LC104-(.LPIC363+8)
	.fnend
	.size	gbam_read_stats, .-gbam_read_stats
	.align	2
	.type	gsmd_ctrl_read_stats, %function
gsmd_ctrl_read_stats:
	.fnstart
	@ args = 0, pretend = 0, frame = 56
	@ frame_needed = 0, uses_anonymous_args = 0
	ldr	r0, .L1904
	strd	r4, [sp, #-36]!
	.save {r4, r5, r6, r7, r8, r9, r10, fp, lr}
	strd	r6, [sp, #8]
	strd	r8, [sp, #16]
	strd	r10, [sp, #24]
.LPIC370:
	ldr	r0, [pc, r0]		@ tls_load_dot_plus_eight
	str	lr, [sp, #32]
	.pad #100
	sub	sp, sp, #100
	str	r1, [sp, #84]
	strd	r2, [sp, #88]
	ldr	r0, [r0, #40]
	cmp	r0, #0
	beq	.L1892
	movw	r1, #32976
	bl	kmem_cache_alloc(PLT)
	subs	r3, r0, #0
	str	r3, [sp, #60]
	beq	.L1903
.L1886:
	ldr	r3, .L1904+4
	mov	fp, #0
	mov	r9, fp
	mov	r10, fp
.LPIC368:
	add	r3, pc, r3
	str	r3, [sp, #64]
	ldr	r3, .L1904+8
.LPIC369:
	add	r3, pc, r3
	str	r3, [sp, #72]
	ldr	r3, .L1904+12
.LPIC365:
	add	r3, pc, r3
	str	r3, [sp, #76]
	ldr	r3, .L1904+16
.LPIC366:
	add	r3, pc, r3
	str	r3, [sp, #80]
.L1891:
	ldr	r3, [sp, #64]
	ldr	r2, [sp, #60]
	add	r3, r3, #532
	ldr	r8, [fp, r3]
	rsb	r3, r9, #1024
	add	r7, r2, r9
	str	r3, [sp, #40]
	cmp	r8, #0
	add	r6, r8, #108
	mov	r0, r6
	beq	.L1888
	bl	_raw_spin_lock_irqsave(PLT)
	ldr	r2, [r8, #88]
	str	r0, [sp, #48]
	ldr	r3, [r8, #96]
	ldr	ip, [r8]
	ldr	r5, [r8, #8]
	cmp	r2, #0
	ldr	r2, [sp, #80]
	str	r3, [sp, #52]
	ldr	r3, [sp, #76]
	ldr	r4, [r8, #8]
	mov	r0, ip
	and	r5, r5, #1
	moveq	r3, r2
	cmp	ip, #0
	moveq	lr, ip
	str	r3, [sp, #44]
	ldr	r3, [r8, #92]
	ubfx	r4, r4, #1, #1
	str	r3, [sp, #56]
	beq	.L1890
	bl	smd_read_avail(PLT)
	ldr	r2, [r8]
	mov	ip, r0
	cmp	r2, #0
	mov	r0, r2
	moveq	lr, r2
	beq	.L1890
	str	ip, [sp, #68]
	bl	smd_write_avail(PLT)
	ldr	ip, [sp, #68]
	mov	lr, r0
.L1890:
	mov	r0, r7
	ldr	r7, [sp, #52]
	str	r8, [sp]
	ldr	r1, [sp, #40]
	str	r8, [sp, #4]
	mov	r3, r10
	ldr	r2, [sp, #72]
	str	r5, [sp, #20]
	str	r4, [sp, #24]
	str	r7, [sp, #8]
	ldr	r7, [sp, #56]
	str	ip, [sp, #28]
	str	lr, [sp, #32]
	str	r7, [sp, #12]
	ldr	r7, [sp, #44]
	str	r7, [sp, #16]
	bl	scnprintf(PLT)
	add	r9, r9, r0
	ldr	r1, [sp, #48]
	mov	r0, r6
	bl	_raw_spin_unlock_irqrestore(PLT)
.L1888:
	add	fp, fp, #84
	add	r10, r10, #1
	cmp	fp, #504
	bne	.L1891
	ldr	r5, [sp, #60]
	str	r9, [sp]
	ldrd	r0, [sp, #84]
	ldr	r2, [sp, #92]
	mov	r3, r5
	bl	simple_read_from_buffer(PLT)
	mov	r4, r0
	mov	r0, r5
	bl	kfree(PLT)
	mov	r0, r4
.L1887:
	add	sp, sp, #100
	@ sp needed
	ldrd	r4, [sp]
	ldrd	r6, [sp, #8]
	ldrd	r8, [sp, #16]
	ldrd	r10, [sp, #24]
	add	sp, sp, #32
	ldr	pc, [sp], #4
.L1892:
	mov	r3, #16
	str	r3, [sp, #60]
	b	.L1886
.L1903:
	mvn	r0, #11
	b	.L1887
.L1905:
	.align	2
.L1904:
	.word	kmalloc_caches(GOT_PREL)+(.-(.LPIC370+8))
	.word	.LANCHOR2-(.LPIC368+8)
	.word	.LC107-(.LPIC369+8)
	.word	.LC105-(.LPIC365+8)
	.word	.LC106-(.LPIC366+8)
	.fnend
	.size	gsmd_ctrl_read_stats, .-gsmd_ctrl_read_stats
	.align	2
	.type	gctrl_read_stats, %function
gctrl_read_stats:
	.fnstart
	@ args = 0, pretend = 0, frame = 32
	@ frame_needed = 0, uses_anonymous_args = 0
	ldr	r0, .L1926
	strd	r4, [sp, #-36]!
	.save {r4, r5, r6, r7, r8, r9, r10, fp, lr}
	strd	r6, [sp, #8]
	strd	r8, [sp, #16]
	strd	r10, [sp, #24]
.LPIC378:
	ldr	r0, [pc, r0]		@ tls_load_dot_plus_eight
	str	lr, [sp, #32]
	.pad #68
	sub	sp, sp, #68
	str	r1, [sp, #52]
	strd	r2, [sp, #56]
	ldr	r0, [r0, #40]
	cmp	r0, #0
	beq	.L1913
	movw	r1, #32976
	bl	kmem_cache_alloc(PLT)
	subs	r9, r0, #0
	beq	.L1925
.L1907:
	ldr	r5, .L1926+4
.LPIC374:
	add	r5, pc, r5
	ldr	r3, [r5, #1036]
	cmp	r3, #0
	beq	.L1909
	ldr	r2, .L1926+8
	mov	r7, #0
	add	r5, r5, #1040
	ldr	fp, .L1926+12
	mov	r6, r7
.LPIC377:
	add	r2, pc, r2
.LPIC376:
	add	fp, pc, fp
	str	r2, [sp, #36]
	ldr	r2, .L1926+16
	str	fp, [sp, #48]
.LPIC371:
	add	r2, pc, r2
	str	r2, [sp, #40]
	ldr	r2, .L1926+20
.LPIC372:
	add	r2, pc, r2
	str	r2, [sp, #44]
.L1912:
	ldr	r4, [r5]
	cmp	r4, #0
	add	r8, r4, #4
	mov	r0, r8
	beq	.L1910
	bl	_raw_spin_lock_irqsave(PLT)
	ldr	lr, [r4, #88]
	mov	r10, r0
	add	r0, r9, r7
	ldr	ip, [r4, #84]
	ldr	fp, [r4, #104]
	ldr	r3, [r5, #24]
	ldr	r2, [r4, #84]
	cmp	lr, #0
	ldr	r1, [r4, #100]
	and	ip, ip, #1
	ldr	lr, [r4, #96]
	str	fp, [sp, #16]
	ldr	fp, [sp, #44]
	str	ip, [sp, #24]
	ldr	ip, [sp, #40]
	ubfx	r2, r2, #1, #1
	str	r6, [sp]
	str	r1, [sp, #8]
	rsb	r1, r7, #1024
	str	r2, [sp, #28]
	ldr	r2, [sp, #48]
	moveq	ip, fp
	str	lr, [sp, #12]
	str	r4, [sp, #4]
	str	ip, [sp, #20]
	bl	scnprintf(PLT)
	add	r7, r7, r0
	mov	r1, r10
	mov	r0, r8
	bl	_raw_spin_unlock_irqrestore(PLT)
	ldr	r3, [sp, #36]
	ldr	r3, [r3, #1036]
.L1910:
	add	r6, r6, #1
	add	r5, r5, #104
	cmp	r6, r3
	bcc	.L1912
	mov	r3, r7
.L1909:
	str	r3, [sp]
	ldrd	r0, [sp, #52]
	mov	r3, r9
	ldr	r2, [sp, #60]
	bl	simple_read_from_buffer(PLT)
	mov	r4, r0
	mov	r0, r9
	bl	kfree(PLT)
	mov	r0, r4
.L1908:
	add	sp, sp, #68
	@ sp needed
	ldrd	r4, [sp]
	ldrd	r6, [sp, #8]
	ldrd	r8, [sp, #16]
	ldrd	r10, [sp, #24]
	add	sp, sp, #32
	ldr	pc, [sp], #4
.L1913:
	mov	r9, #16
	b	.L1907
.L1925:
	mvn	r0, #11
	b	.L1908
.L1927:
	.align	2
.L1926:
	.word	kmalloc_caches(GOT_PREL)+(.-(.LPIC378+8))
	.word	.LANCHOR2-(.LPIC374+8)
	.word	.LANCHOR2-(.LPIC377+8)
	.word	.LC108-(.LPIC376+8)
	.word	.LC105-(.LPIC371+8)
	.word	.LC106-(.LPIC372+8)
	.fnend
	.size	gctrl_read_stats, .-gctrl_read_stats
	.align	2
	.type	ghsic_data_read_stats, %function
ghsic_data_read_stats:
	.fnstart
	@ args = 0, pretend = 0, frame = 24
	@ frame_needed = 0, uses_anonymous_args = 0
	ldr	r0, .L1946
	strd	r4, [sp, #-36]!
	.save {r4, r5, r6, r7, r8, r9, r10, fp, lr}
	strd	r6, [sp, #8]
	strd	r8, [sp, #16]
	strd	r10, [sp, #24]
.LPIC385:
	ldr	r0, [pc, r0]		@ tls_load_dot_plus_eight
	str	lr, [sp, #32]
	.pad #68
	sub	sp, sp, #68
	str	r1, [sp, #52]
	strd	r2, [sp, #56]
	ldr	r0, [r0, #48]
	cmp	r0, #0
	beq	.L1934
	movw	r1, #32976
	bl	kmem_cache_alloc(PLT)
	subs	r10, r0, #0
	beq	.L1945
.L1929:
	ldr	r6, .L1946+4
.LPIC380:
	add	r6, pc, r6
	ldr	r3, [r6, #1456]
	cmp	r3, #0
	beq	.L1931
	ldr	r2, .L1946+8
	add	r6, r6, #1456
	mov	r5, #0
	add	r6, r6, #4
	mov	r7, r5
.LPIC382:
	add	r2, pc, r2
	str	r2, [sp, #40]
	ldr	r2, .L1946+12
.LPIC383:
	add	r2, pc, r2
	str	r2, [sp, #44]
	ldr	r2, .L1946+16
.LPIC384:
	add	r2, pc, r2
	str	r2, [sp, #48]
.L1933:
	ldr	r4, [r6]
	cmp	r4, #0
	add	r8, r4, #80
	add	r9, r4, #48
	mov	r0, r8
	beq	.L1932
	bl	_raw_spin_lock_irqsave(PLT)
	ldr	r1, [r4, #180]
	mov	fp, r0
	add	r0, r10, r5
	ldr	r2, [r4, #180]
	ldr	r3, [r6, #24]
	ldr	lr, [r4, #164]
	str	r7, [sp]
	and	r1, r1, #1
	str	r4, [sp, #4]
	ubfx	r2, r2, #1, #1
	str	r1, [sp, #8]
	rsb	r1, r5, #4096
	str	r2, [sp, #12]
	ldr	ip, [r4, #188]
	ubfx	lr, lr, #1, #1
	ldr	r2, [sp, #40]
	str	ip, [sp, #16]
	ldr	ip, [r4, #212]
	str	ip, [sp, #20]
	ldr	ip, [r4, #72]
	str	ip, [sp, #24]
	ldr	ip, [r4, #204]
	str	ip, [sp, #28]
	ldr	ip, [r4, #208]
	str	lr, [sp, #36]
	str	ip, [sp, #32]
	bl	scnprintf(PLT)
	add	r5, r0, r5
	mov	r1, fp
	mov	r0, r8
	bl	_raw_spin_unlock_irqrestore(PLT)
	mov	r0, r9
	bl	_raw_spin_lock_irqsave(PLT)
	ldr	lr, [r4, #40]
	rsb	r1, r5, #4096
	mov	r8, r0
	ldr	r3, [r4, #192]
	add	r0, r10, r5
	ldr	ip, [r4, #164]
	ldr	r2, [sp, #44]
	str	lr, [sp]
	ldr	lr, [r4, #196]
	ubfx	ip, ip, #2, #1
	str	lr, [sp, #4]
	ldr	lr, [r4, #200]
	str	lr, [sp, #8]
	ldr	lr, [r4, #216]
	str	ip, [sp, #16]
	str	lr, [sp, #12]
	bl	scnprintf(PLT)
	add	r5, r0, r5
	mov	r1, r8
	mov	r0, r9
	bl	_raw_spin_unlock_irqrestore(PLT)
	ldr	r3, [sp, #48]
	ldr	r3, [r3, #1456]
.L1932:
	add	r7, r7, #1
	add	r6, r6, #104
	cmp	r7, r3
	bcc	.L1933
	mov	r3, r5
.L1931:
	str	r3, [sp]
	ldrd	r0, [sp, #52]
	mov	r3, r10
	ldr	r2, [sp, #60]
	bl	simple_read_from_buffer(PLT)
	mov	r4, r0
	mov	r0, r10
	bl	kfree(PLT)
	mov	r0, r4
.L1930:
	add	sp, sp, #68
	@ sp needed
	ldrd	r4, [sp]
	ldrd	r6, [sp, #8]
	ldrd	r8, [sp, #16]
	ldrd	r10, [sp, #24]
	add	sp, sp, #32
	ldr	pc, [sp], #4
.L1934:
	mov	r10, #16
	b	.L1929
.L1945:
	mvn	r0, #11
	b	.L1930
.L1947:
	.align	2
.L1946:
	.word	kmalloc_caches(GOT_PREL)+(.-(.LPIC385+8))
	.word	.LANCHOR2-(.LPIC380+8)
	.word	.LC109-(.LPIC382+8)
	.word	.LC110-(.LPIC383+8)
	.word	.LANCHOR2-(.LPIC384+8)
	.fnend
	.size	ghsic_data_read_stats, .-ghsic_data_read_stats
	.align	2
	.type	ghsuart_ctrl_read_stats, %function
ghsuart_ctrl_read_stats:
	.fnstart
	@ args = 0, pretend = 0, frame = 32
	@ frame_needed = 0, uses_anonymous_args = 0
	ldr	r0, .L1968
	strd	r4, [sp, #-36]!
	.save {r4, r5, r6, r7, r8, r9, r10, fp, lr}
	strd	r6, [sp, #8]
	strd	r8, [sp, #16]
	strd	r10, [sp, #24]
.LPIC393:
	ldr	r0, [pc, r0]		@ tls_load_dot_plus_eight
	str	lr, [sp, #32]
	.pad #60
	sub	sp, sp, #60
	str	r1, [sp, #44]
	strd	r2, [sp, #48]
	ldr	r0, [r0, #40]
	cmp	r0, #0
	beq	.L1955
	movw	r1, #32976
	bl	kmem_cache_alloc(PLT)
	subs	r9, r0, #0
	beq	.L1967
.L1949:
	ldr	r8, .L1968+4
.LPIC389:
	add	r8, pc, r8
	ldr	r2, [r8, #1876]
	cmp	r2, #0
	beq	.L1951
	ldr	r3, .L1968+8
	mov	r5, #0
	mov	r6, r5
	mov	r4, r5
.LPIC391:
	add	r3, pc, r3
	str	r3, [sp, #28]
	ldr	r3, .L1968+12
.LPIC392:
	add	r3, pc, r3
	str	r3, [sp, #32]
	ldr	r3, .L1968+16
.LPIC386:
	add	r3, pc, r3
	str	r3, [sp, #36]
	ldr	r3, .L1968+20
.LPIC387:
	add	r3, pc, r3
	str	r3, [sp, #40]
.L1954:
	add	r3, r8, #1872
	add	r3, r3, #8
	ldr	fp, [r5, r3]
	add	r5, r5, #84
	cmp	fp, #0
	add	r7, fp, #8
	mov	r0, r7
	beq	.L1952
	bl	_raw_spin_lock_irqsave(PLT)
	ldr	r3, [fp, #92]
	rsb	r1, r6, #1024
	mov	r10, r0
	ldr	ip, [sp, #40]
	add	r0, r9, r6
	ldr	lr, [fp, #100]
	ldr	r2, [fp, #96]
	cmp	r3, #0
	ldr	r3, [fp, #104]
	stmia	sp, {fp, lr}
	str	r2, [sp, #8]
	ldr	r2, [sp, #28]
	str	r3, [sp, #12]
	ldr	r3, [sp, #36]
	moveq	r3, ip
	str	r3, [sp, #16]
	mov	r3, r4
	bl	scnprintf(PLT)
	add	r6, r6, r0
	mov	r1, r10
	mov	r0, r7
	bl	_raw_spin_unlock_irqrestore(PLT)
	ldr	r3, [sp, #32]
	ldr	r2, [r3, #1876]
.L1952:
	add	r4, r4, #1
	cmp	r4, r2
	bcc	.L1954
	mov	r2, r6
.L1951:
	str	r2, [sp]
	ldrd	r0, [sp, #44]
	mov	r3, r9
	ldr	r2, [sp, #52]
	bl	simple_read_from_buffer(PLT)
	mov	r4, r0
	mov	r0, r9
	bl	kfree(PLT)
	mov	r0, r4
.L1950:
	add	sp, sp, #60
	@ sp needed
	ldrd	r4, [sp]
	ldrd	r6, [sp, #8]
	ldrd	r8, [sp, #16]
	ldrd	r10, [sp, #24]
	add	sp, sp, #32
	ldr	pc, [sp], #4
.L1955:
	mov	r9, #16
	b	.L1949
.L1967:
	mvn	r0, #11
	b	.L1950
.L1969:
	.align	2
.L1968:
	.word	kmalloc_caches(GOT_PREL)+(.-(.LPIC393+8))
	.word	.LANCHOR2-(.LPIC389+8)
	.word	.LC111-(.LPIC391+8)
	.word	.LANCHOR2-(.LPIC392+8)
	.word	.LC105-(.LPIC386+8)
	.word	.LC106-(.LPIC387+8)
	.fnend
	.size	ghsuart_ctrl_read_stats, .-ghsuart_ctrl_read_stats
	.align	2
	.type	ghsuart_data_read_stats, %function
ghsuart_data_read_stats:
	.fnstart
	@ args = 0, pretend = 0, frame = 32
	@ frame_needed = 0, uses_anonymous_args = 0
	ldr	r0, .L1988
	strd	r4, [sp, #-36]!
	.save {r4, r5, r6, r7, r8, r9, r10, fp, lr}
	strd	r6, [sp, #8]
	strd	r8, [sp, #16]
	strd	r10, [sp, #24]
.LPIC401:
	ldr	r0, [pc, r0]		@ tls_load_dot_plus_eight
	str	lr, [sp, #32]
	.pad #76
	sub	sp, sp, #76
	str	r1, [sp, #60]
	strd	r2, [sp, #64]
	ldr	r0, [r0, #40]
	cmp	r0, #0
	beq	.L1976
	movw	r1, #32976
	bl	kmem_cache_alloc(PLT)
	subs	r8, r0, #0
	beq	.L1987
.L1971:
	ldr	r0, .L1988+4
.LPIC395:
	add	r0, pc, r0
	ldr	r2, [r0, #2048]
	cmp	r2, #0
	beq	.L1973
	ldr	r1, .L1988+8
	mov	r6, #0
	add	fp, r0, #2048
	mov	r5, r6
	add	fp, fp, #4
	str	r0, [sp, #48]
	mov	r7, r6
.LPIC397:
	add	r1, pc, r1
	str	r1, [sp, #52]
	ldr	r1, .L1988+12
.LPIC399:
	add	r1, pc, r1
	str	r1, [sp, #56]
.L1975:
	ldr	r4, [r6, fp]
	cmp	r4, #0
	add	r9, r4, #104
	add	r10, r4, #72
	mov	r0, r9
	beq	.L1974
	bl	_raw_spin_lock_irqsave(PLT)
	ldr	r1, [r4, #188]
	add	r3, fp, r6
	str	r0, [sp, #44]
	ldr	r2, [r4, #188]
	add	r0, r8, r5
	ldr	lr, [r4, #188]
	ldr	r3, [r3, #24]
	and	r1, r1, #1
	ldr	ip, [r4, #184]
	str	r7, [sp]
	ubfx	r2, r2, #1, #1
	str	r4, [sp, #4]
	ubfx	lr, lr, #2, #1
	str	r1, [sp, #8]
	rsb	r1, r5, #1024
	str	r2, [sp, #12]
	ldr	r2, [sp, #52]
	str	lr, [sp, #16]
	ldr	lr, [r4, #204]
	ubfx	ip, ip, #1, #1
	str	lr, [sp, #20]
	ldr	lr, [r4, #212]
	str	lr, [sp, #24]
	ldr	lr, [r4, #96]
	str	ip, [sp, #32]
	str	lr, [sp, #28]
	bl	scnprintf(PLT)
	add	r5, r0, r5
	ldr	r1, [sp, #44]
	mov	r0, r9
	bl	_raw_spin_unlock_irqrestore(PLT)
	mov	r0, r10
	bl	_raw_spin_lock_irqsave(PLT)
	ldr	ip, [r4, #184]
	rsb	r1, r5, #1024
	mov	r9, r0
	ldr	lr, [r4, #64]
	add	r0, r8, r5
	ldr	r3, [r4, #208]
	ldr	r2, [sp, #56]
	ubfx	ip, ip, #2, #1
	str	lr, [sp]
	str	ip, [sp, #4]
	bl	scnprintf(PLT)
	add	r5, r0, r5
	mov	r1, r9
	mov	r0, r10
	bl	_raw_spin_unlock_irqrestore(PLT)
	ldr	r3, [sp, #48]
	ldr	r2, [r3, #2048]
.L1974:
	add	r7, r7, #1
	add	r6, r6, #84
	cmp	r7, r2
	bcc	.L1975
	mov	r2, r5
.L1973:
	str	r2, [sp]
	ldrd	r0, [sp, #60]
	mov	r3, r8
	ldr	r2, [sp, #68]
	bl	simple_read_from_buffer(PLT)
	mov	r4, r0
	mov	r0, r8
	bl	kfree(PLT)
	mov	r0, r4
.L1972:
	add	sp, sp, #76
	@ sp needed
	ldrd	r4, [sp]
	ldrd	r6, [sp, #8]
	ldrd	r8, [sp, #16]
	ldrd	r10, [sp, #24]
	add	sp, sp, #32
	ldr	pc, [sp], #4
.L1976:
	mov	r8, #16
	b	.L1971
.L1987:
	mvn	r0, #11
	b	.L1972
.L1989:
	.align	2
.L1988:
	.word	kmalloc_caches(GOT_PREL)+(.-(.LPIC401+8))
	.word	.LANCHOR2-(.LPIC395+8)
	.word	.LC112-(.LPIC397+8)
	.word	.LC113-(.LPIC399+8)
	.fnend
	.size	ghsuart_data_read_stats, .-ghsuart_data_read_stats
	.align	2
	.type	debug_read_stats, %function
debug_read_stats:
	.fnstart
	@ args = 0, pretend = 0, frame = 0
	@ frame_needed = 0, uses_anonymous_args = 0
	strd	r4, [sp, #-36]!
	.save {r4, r5, r6, r7, r8, r9, r10, fp, lr}
	strd	r6, [sp, #8]
	ldr	r6, .L2000
	strd	r8, [sp, #16]
	mov	r9, r2
	mov	r8, r3
	strd	r10, [sp, #24]
	mov	r10, r1
	str	lr, [sp, #32]
	.pad #28
	sub	sp, sp, #28
.LPIC402:
	add	r6, pc, r6
	ldr	r4, [r6]
	cmp	r6, r4
	sub	r4, r4, #4
	beq	.L1994
	ldr	r5, .L2000+4
	mov	fp, #0
	ldr	r7, .L2000+8
.LPIC404:
	add	r5, pc, r5
	add	r5, r5, #3408
.LPIC405:
	add	r7, pc, r7
	add	r5, r5, #12
.L1993:
	ldr	ip, [r4, #20]
	add	r0, r5, fp
	rsb	r1, fp, #4096
	mov	r2, r7
	cmp	ip, #0
	beq	.L1992
	ldr	lr, [ip, #80]
	ldr	r3, [r4]
	ldr	lr, [lr, #4]
	str	lr, [sp]
	ldr	lr, [ip, #76]
	ldr	lr, [lr, #4]
	str	lr, [sp, #4]
	ldr	lr, [ip, #120]
	str	lr, [sp, #8]
	ldr	lr, [ip, #124]
	str	lr, [sp, #12]
	ldr	ip, [ip, #128]
	str	ip, [sp, #16]
	bl	scnprintf(PLT)
	add	fp, fp, r0
.L1992:
	ldr	r4, [r4, #4]
	cmp	r6, r4
	sub	r4, r4, #4
	bne	.L1993
.L1991:
	ldr	r3, .L2000+12
	str	fp, [sp]
	mov	r0, r10
	mov	r1, r9
	mov	r2, r8
.LPIC407:
	add	r3, pc, r3
	add	r3, r3, #3408
	add	r3, r3, #12
	bl	simple_read_from_buffer(PLT)
	add	sp, sp, #28
	@ sp needed
	ldrd	r4, [sp]
	ldrd	r6, [sp, #8]
	ldrd	r8, [sp, #16]
	ldrd	r10, [sp, #24]
	add	sp, sp, #32
	ldr	pc, [sp], #4
.L1994:
	mov	fp, #0
	b	.L1991
.L2001:
	.align	2
.L2000:
	.word	.LANCHOR0-(.LPIC402+8)
	.word	.LANCHOR2-(.LPIC404+8)
	.word	.LC114-(.LPIC405+8)
	.word	.LANCHOR2-(.LPIC407+8)
	.fnend
	.size	debug_read_stats, .-debug_read_stats
	.section	.exit.text,"ax",%progbits
	.align	2
	.type	gether_exit, %function
gether_exit:
	.fnstart
	@ args = 0, pretend = 0, frame = 0
	@ frame_needed = 0, uses_anonymous_args = 0
	@ link register save eliminated.
	ldr	r3, .L2003
.LPIC408:
	add	r3, pc, r3
	ldr	r0, [r3, #-668]
	b	destroy_workqueue(PLT)
.L2004:
	.align	2
.L2003:
	.word	.LANCHOR4-(.LPIC408+8)
	.fnend
	.size	gether_exit, .-gether_exit
	.text
	.align	2
	.type	qdss_function_cleanup, %function
qdss_function_cleanup:
	.fnstart
	@ args = 0, pretend = 0, frame = 0
	@ frame_needed = 0, uses_anonymous_args = 0
	strd	r4, [sp, #-32]!
	.save {r4, r5, r6, r7, r8, r9, r10, lr}
	strd	r6, [sp, #8]
	ldr	r7, .L2013
	strd	r8, [sp, #16]
	str	r10, [sp, #24]
	str	lr, [sp, #28]
.LPIC409:
	add	r7, pc, r7
	ldr	r5, [r7, #24]!
	cmp	r5, r7
	ldr	r4, [r5]
	beq	.L2005
	ldr	r8, .L2013+4
.LPIC411:
	add	r8, pc, r8
	sub	r8, r8, #664
	mov	r9, r8
	b	.L2008
.L2010:
	mov	r4, r3
.L2008:
	mov	r0, r8
	bl	_raw_spin_lock_irqsave(PLT)
	mov	r6, r0
	ldr	r0, [r5, #80]
	bl	destroy_workqueue(PLT)
	ldr	r3, [r5, #12]
	cmp	r3, #0
	beq	.L2012
.L2007:
	mov	r1, r6
	mov	r0, r9
	bl	_raw_spin_unlock_irqrestore(PLT)
	cmp	r4, r7
	ldr	r3, [r4]
	mov	r5, r4
	bne	.L2010
.L2005:
	ldrd	r4, [sp]
	ldrd	r6, [sp, #8]
	ldrd	r8, [sp, #16]
	ldr	r10, [sp, #24]
	add	sp, sp, #28
	ldr	pc, [sp], #4
.L2012:
	ldr	r3, [r5, #4]
	mov	ip, #256
	mov	r1, #512
	ldr	r2, [r5]
	sub	r0, r5, #108
	str	r3, [r2, #4]
	str	r2, [r3]
	str	ip, [r5]
	str	r1, [r5, #4]
	bl	kfree(PLT)
	b	.L2007
.L2014:
	.align	2
.L2013:
	.word	.LANCHOR0-(.LPIC409+8)
	.word	.LANCHOR4-(.LPIC411+8)
	.fnend
	.size	qdss_function_cleanup, .-qdss_function_cleanup
	.align	2
	.type	rmnet_smd_command_complete, %function
rmnet_smd_command_complete:
	.fnstart
	@ args = 0, pretend = 0, frame = 0
	@ frame_needed = 0, uses_anonymous_args = 0
	strd	r4, [sp, #-24]!
	.save {r4, r5, r6, r7, r8, lr}
	strd	r6, [sp, #8]
	str	r8, [sp, #16]
	str	lr, [sp, #20]
	ldr	r2, [r1, #44]
	ldr	r4, [r1, #32]
	cmp	r2, #0
	ldr	r8, [r4, #76]
	blt	.L2023
	add	r7, r4, #156
	mov	r6, r1
	mov	r0, r7
	bl	_raw_spin_lock(PLT)
	ldr	r3, [r4, #440]
	ldr	r2, [r4, #300]
	add	r3, r3, #1
	cmp	r2, #0
	str	r3, [r4, #440]
	beq	.L2024
.L2017:
	mov	r3, r4
	ldr	r5, [r3, #100]!
	cmp	r5, r3
	beq	.L2025
	ldr	r3, [r5, #4]
	mov	ip, #256
	mov	r1, #512
	ldr	r2, [r5]
	mov	r0, r7
	str	r3, [r2, #4]
	str	r2, [r3]
	str	ip, [r5]
	str	r1, [r5, #4]
	bl	_raw_spin_unlock(PLT)
	ldr	r2, [r6, #48]
	ldr	r1, [r6]
	ldr	r0, [r5, #-8]
	bl	memcpy(PLT)
	ldr	r3, [r6, #48]
	mov	r0, r7
	str	r3, [r5, #-4]
	bl	_raw_spin_lock(PLT)
	ldr	r3, [r4, #120]
	add	r2, r4, #116
	mov	r0, r7
	str	r5, [r4, #120]
	strd	r2, [r5]
	str	r5, [r3]
.L2022:
	ldrd	r4, [sp]
	ldrd	r6, [sp, #8]
	ldr	r8, [sp, #16]
	ldr	lr, [sp, #20]
	add	sp, sp, #24
	b	_raw_spin_unlock(PLT)
.L2024:
	ldr	r0, [r4, #252]
	bl	smd_write_avail(PLT)
	ldr	r3, [r6, #48]
	cmp	r0, r3
	strcc	r3, [r4, #300]
	bcc	.L2017
	mov	r0, r7
	bl	_raw_spin_unlock(PLT)
	ldr	r0, [r4, #252]
	ldr	r1, [r6]
	ldr	r2, [r6, #48]
	bl	smd_write(PLT)
	ldr	r3, [r6, #48]
	cmp	r0, r3
	beq	.L2019
	ldr	r0, [r8]
	ldr	r1, .L2026
	add	r0, r0, #32
.LPIC415:
	add	r1, pc, r1
	bl	dev_err(PLT)
.L2019:
	mov	r0, r7
	bl	_raw_spin_lock(PLT)
	ldr	r3, [r4, #444]
	mov	r0, r7
	add	r3, r3, #1
	str	r3, [r4, #444]
	b	.L2022
.L2023:
	ldr	r0, [r8]
	ldr	r1, .L2026+4
	ldrd	r4, [sp]
	ldrd	r6, [sp, #8]
	ldr	r8, [sp, #16]
	add	r0, r0, #32
	ldr	lr, [sp, #20]
.LPIC414:
	add	r1, pc, r1
	add	sp, sp, #24
	b	dev_err(PLT)
.L2025:
	mov	r0, r7
	bl	_raw_spin_unlock(PLT)
	ldr	r0, [r8]
	ldr	r1, .L2026+8
	ldrd	r4, [sp]
	ldrd	r6, [sp, #8]
	ldr	r8, [sp, #16]
	add	r0, r0, #32
	ldr	lr, [sp, #20]
.LPIC416:
	add	r1, pc, r1
	add	sp, sp, #24
	b	dev_err(PLT)
.L2027:
	.align	2
.L2026:
	.word	.LC116-(.LPIC415+8)
	.word	.LC115-(.LPIC414+8)
	.word	.LC117-(.LPIC416+8)
	.fnend
	.size	rmnet_smd_command_complete, .-rmnet_smd_command_complete
	.align	2
	.type	rmnet_smd_complete_epout, %function
rmnet_smd_complete_epout:
	.fnstart
	@ args = 0, pretend = 0, frame = 0
	@ frame_needed = 0, uses_anonymous_args = 0
	strd	r4, [sp, #-20]!
	.save {r4, r5, r6, r7, lr}
	mov	r5, r1
	strd	r6, [sp, #8]
	str	lr, [sp, #16]
	ldr	r3, [r1, #44]
	.pad #12
	sub	sp, sp, #12
	ldr	r4, [r1, #32]
	cmn	r3, #104
	ldr	r6, [r4, #76]
	beq	.L2030
	cmp	r3, #0
	beq	.L2031
	cmn	r3, #108
	beq	.L2030
	ldr	r1, [r6]
	add	r6, r4, #156
	ldr	r2, [r0, #4]
	ldr	lr, [r5, #48]
	ldr	ip, [r5, #4]
	add	r0, r1, #32
	ldr	r1, .L2046
	str	lr, [sp]
	str	ip, [sp, #4]
.LPIC417:
	add	r1, pc, r1
	bl	dev_err(PLT)
.L2044:
	mov	r0, r6
	bl	_raw_spin_lock(PLT)
	add	r2, r5, #36
	add	r1, r4, #140
	ldr	r3, [r4, #144]
	mov	r0, r6
	str	r2, [r4, #144]
.L2043:
	str	r1, [r5, #36]
	str	r3, [r5, #40]
	str	r2, [r3]
	add	sp, sp, #12
	@ sp needed
	ldrd	r4, [sp]
	ldrd	r6, [sp, #8]
	ldr	lr, [sp, #16]
	add	sp, sp, #20
	b	_raw_spin_unlock(PLT)
.L2030:
	add	r6, r4, #156
	b	.L2044
.L2031:
	add	r7, r4, #156
	mov	r0, r7
	bl	_raw_spin_lock(PLT)
	ldr	r3, [r4, #424]
	ldr	r2, [r4, #364]
	add	r3, r3, #1
	cmp	r2, #0
	str	r3, [r4, #424]
	bne	.L2032
	ldr	r0, [r4, #316]
	bl	smd_write_avail(PLT)
	ldr	r3, [r5, #48]
	cmp	r0, r3
	strcc	r3, [r4, #364]
	bcs	.L2045
.L2032:
	add	r2, r5, #36
	ldr	r3, [r4, #152]
	add	r1, r4, #148
	mov	r0, r7
	str	r2, [r4, #152]
	b	.L2043
.L2045:
	mov	r0, r7
	bl	_raw_spin_unlock(PLT)
	ldr	r0, [r4, #316]
	ldr	r1, [r5]
	ldr	r2, [r5, #48]
	bl	smd_write(PLT)
	ldr	r3, [r5, #48]
	cmp	r0, r3
	beq	.L2034
	ldr	r0, [r6]
	ldr	r1, .L2046+4
	add	r0, r0, #32
.LPIC418:
	add	r1, pc, r1
	bl	dev_err(PLT)
.L2034:
	mov	r0, r7
	bl	_raw_spin_lock(PLT)
	ldr	r3, [r4, #428]
	add	r1, r5, #36
	add	ip, r4, #140
	ldr	r2, [r4, #144]
	mov	r0, r7
	str	r1, [r4, #144]
	add	r3, r3, #1
	str	r3, [r4, #428]
	str	r2, [r5, #40]
	str	ip, [r5, #36]
	str	r1, [r2]
	bl	_raw_spin_unlock(PLT)
	mov	r0, r4
	add	sp, sp, #12
	@ sp needed
	ldrd	r4, [sp]
	ldrd	r6, [sp, #8]
	ldr	lr, [sp, #16]
	add	sp, sp, #20
	b	rmnet_smd_start_rx(PLT)
.L2047:
	.align	2
.L2046:
	.word	.LC118-(.LPIC417+8)
	.word	.LC119-(.LPIC418+8)
	.fnend
	.size	rmnet_smd_complete_epout, .-rmnet_smd_complete_epout
	.align	2
	.type	rmnet_data_rx_tlet, %function
rmnet_data_rx_tlet:
	.fnstart
	@ args = 0, pretend = 0, frame = 8
	@ frame_needed = 0, uses_anonymous_args = 0
	strd	r4, [sp, #-36]!
	.save {r4, r5, r6, r7, r8, r9, r10, fp, lr}
	mov	r5, r0
	strd	r6, [sp, #8]
	add	r6, r0, #156
	add	r7, r0, #148
	strd	r8, [sp, #16]
	strd	r10, [sp, #24]
	str	lr, [sp, #32]
	ldr	r3, [r0, #76]
	.pad #12
	sub	sp, sp, #12
	mov	r0, r6
	str	r3, [sp, #4]
	bl	_raw_spin_lock_irqsave(PLT)
	ldr	r4, [r5, #148]
	mov	fp, r0
	cmp	r7, r4
	addne	r3, r5, #140
	movne	r9, #256
	movne	r8, #512
	strne	r3, [sp]
	bne	.L2054
	b	.L2053
.L2051:
	ldrd	r2, [r4]
	str	r3, [r2, #4]
	str	r2, [r3]
	str	r9, [r4]
	str	r8, [r4, #4]
	bl	_raw_spin_unlock_irqrestore(PLT)
	ldr	r1, [r4, #-36]
	ldr	r2, [r4, #12]
	ldr	r0, [r5, #316]
	bl	smd_write(PLT)
	mov	r10, r0
	mov	r0, r6
	bl	_raw_spin_lock_irqsave(PLT)
	ldr	r3, [r4, #12]
	mov	fp, r0
	cmp	r10, r3
	bne	.L2056
	ldr	r3, [r5, #428]
	ldr	r1, [r5, #144]
	str	r4, [r5, #144]
	add	r3, r3, #1
	str	r3, [r5, #428]
	ldr	r3, [sp]
	str	r1, [r4, #4]
	str	r3, [r4]
	str	r4, [r1]
	ldr	r4, [r5, #148]
	cmp	r4, r7
	beq	.L2053
.L2054:
	ldr	r0, [r5, #316]
	bl	smd_write_avail(PLT)
	ldr	r3, [r4, #12]
	mov	r1, fp
	cmp	r0, r3
	mov	r0, r6
	bcs	.L2051
	str	r3, [r5, #364]
.L2050:
	mov	r0, r6
	mov	r1, fp
	bl	_raw_spin_unlock_irqrestore(PLT)
	mov	r0, r5
	add	sp, sp, #12
	@ sp needed
	ldrd	r4, [sp]
	ldrd	r6, [sp, #8]
	ldrd	r8, [sp, #16]
	ldrd	r10, [sp, #24]
	ldr	lr, [sp, #32]
	add	sp, sp, #36
	b	rmnet_smd_start_rx(PLT)
.L2053:
	mov	r3, #0
	str	r3, [r5, #364]
	b	.L2050
.L2056:
	ldr	r3, [sp, #4]
	ldr	r1, .L2057
	ldr	r0, [r3]
.LPIC419:
	add	r1, pc, r1
	add	r0, r0, #32
	bl	dev_err(PLT)
	b	.L2050
.L2058:
	.align	2
.L2057:
	.word	.LC120-(.LPIC419+8)
	.fnend
	.size	rmnet_data_rx_tlet, .-rmnet_data_rx_tlet
	.align	2
	.type	rmnet_control_rx_tlet, %function
rmnet_control_rx_tlet:
	.fnstart
	@ args = 0, pretend = 0, frame = 8
	@ frame_needed = 0, uses_anonymous_args = 0
	strd	r4, [sp, #-36]!
	.save {r4, r5, r6, r7, r8, r9, r10, fp, lr}
	mov	r5, r0
	strd	r6, [sp, #8]
	add	r6, r0, #156
	add	r7, r0, #116
	strd	r8, [sp, #16]
	strd	r10, [sp, #24]
	str	lr, [sp, #32]
	ldr	r3, [r0, #76]
	.pad #12
	sub	sp, sp, #12
	mov	r0, r6
	str	r3, [sp, #4]
	bl	_raw_spin_lock_irqsave(PLT)
	ldr	r4, [r5, #116]
	mov	fp, r0
	cmp	r7, r4
	addne	r3, r5, #100
	movne	r9, #256
	movne	r8, #512
	strne	r3, [sp]
	bne	.L2065
	b	.L2064
.L2062:
	ldrd	r2, [r4]
	str	r3, [r2, #4]
	str	r2, [r3]
	str	r9, [r4]
	str	r8, [r4, #4]
	ldr	r3, [r5, #440]
	add	r3, r3, #1
	str	r3, [r5, #440]
	bl	_raw_spin_unlock_irqrestore(PLT)
	ldmdb	r4, {r1, r2}
	ldr	r0, [r5, #252]
	bl	smd_write(PLT)
	mov	r10, r0
	mov	r0, r6
	bl	_raw_spin_lock_irqsave(PLT)
	ldr	r1, [r4, #-4]
	mov	fp, r0
	cmp	r1, r10
	bne	.L2067
	ldr	r3, [r5, #444]
	ldr	r1, [r5, #104]
	str	r4, [r5, #104]
	add	r3, r3, #1
	str	r3, [r5, #444]
	ldr	r3, [sp]
	str	r1, [r4, #4]
	str	r3, [r4]
	str	r4, [r1]
	ldr	r4, [r5, #116]
	cmp	r4, r7
	beq	.L2064
.L2065:
	ldr	r0, [r5, #252]
	bl	smd_write_avail(PLT)
	ldr	r3, [r4, #-4]
	mov	r1, fp
	cmp	r0, r3
	mov	r0, r6
	bge	.L2062
	str	r3, [r5, #300]
.L2061:
	mov	r0, r6
	mov	r1, fp
	add	sp, sp, #12
	@ sp needed
	ldrd	r4, [sp]
	ldrd	r6, [sp, #8]
	ldrd	r8, [sp, #16]
	ldrd	r10, [sp, #24]
	ldr	lr, [sp, #32]
	add	sp, sp, #36
	b	_raw_spin_unlock_irqrestore(PLT)
.L2064:
	mov	r3, #0
	str	r3, [r5, #300]
	b	.L2061
.L2067:
	ldr	r3, [sp, #4]
	ldr	r1, .L2068
	ldr	r0, [r3]
.LPIC420:
	add	r1, pc, r1
	add	r0, r0, #32
	bl	dev_err(PLT)
	b	.L2061
.L2069:
	.align	2
.L2068:
	.word	.LC116-(.LPIC420+8)
	.fnend
	.size	rmnet_control_rx_tlet, .-rmnet_control_rx_tlet
	.align	2
	.type	grmnet_ctrl_smd_write_w, %function
grmnet_ctrl_smd_write_w:
	.fnstart
	@ args = 0, pretend = 0, frame = 0
	@ frame_needed = 0, uses_anonymous_args = 0
	strd	r4, [sp, #-36]!
	.save {r4, r5, r6, r7, r8, r9, r10, fp, lr}
	mov	r5, r0
	strd	r6, [sp, #8]
	strd	r8, [sp, #16]
	strd	r10, [sp, #24]
	str	lr, [sp, #32]
	ldr	r6, [r0, #16]
	.pad #4
	sub	sp, sp, #4
	add	r6, r6, #108
	mov	r0, r6
	bl	_raw_spin_lock_irqsave(PLT)
	mov	r7, r0
	ldr	r0, [r5, #-68]
	cmp	r0, #0
	beq	.L2071
	ldr	r4, [r5, #-28]
	sub	r8, r5, #28
	cmp	r8, r4
	movne	r10, #256
	bne	.L2073
	b	.L2071
.L2082:
	ldrd	r2, [r4]
	str	r3, [r2, #4]
	str	r2, [r3]
	mov	r3, #512
	str	r10, [r4]
	str	r3, [r4, #4]
	bl	_raw_spin_unlock_irqrestore(PLT)
	ldmdb	r4, {r1, r2}
	ldr	r0, [r5, #-68]
	bl	smd_write(PLT)
	mov	r9, r0
	mov	r0, r6
	bl	_raw_spin_lock_irqsave(PLT)
	ldr	r3, [r4, #-4]
	mov	r7, r0
	cmp	r3, r9
	bne	.L2081
	ldr	r0, [r4, #-8]
	bl	kfree(PLT)
	mov	r0, fp
	bl	kfree(PLT)
	ldr	r3, [r5, #24]
	ldr	r0, [r5, #-68]
	add	r3, r3, #1
	cmp	r0, #0
	str	r3, [r5, #24]
	beq	.L2071
	ldr	r4, [r5, #-28]
	cmp	r4, r8
	beq	.L2071
.L2073:
	bl	smd_write_avail(PLT)
	ldr	r3, [r4, #-4]
	sub	fp, r4, #8
	mov	r1, r7
	cmp	r0, r3
	mov	r0, r6
	bge	.L2082
.L2071:
	mov	r0, r6
	mov	r1, r7
	add	sp, sp, #4
	@ sp needed
	ldrd	r4, [sp]
	ldrd	r6, [sp, #8]
	ldrd	r8, [sp, #16]
	ldrd	r10, [sp, #24]
	ldr	lr, [sp, #32]
	add	sp, sp, #36
	b	_raw_spin_unlock_irqrestore(PLT)
.L2081:
	ldr	r1, .L2083
	mov	r2, r9
	ldr	r0, .L2083+4
.LPIC422:
	add	r1, pc, r1
	add	r1, r1, #632
.LPIC421:
	add	r0, pc, r0
	bl	printk(PLT)
	ldr	r0, [r4, #-8]
	bl	kfree(PLT)
	mov	r0, fp
	bl	kfree(PLT)
	b	.L2071
.L2084:
	.align	2
.L2083:
	.word	.LANCHOR3-(.LPIC422+8)
	.word	.LC121-(.LPIC421+8)
	.fnend
	.size	grmnet_ctrl_smd_write_w, .-grmnet_ctrl_smd_write_w
	.align	2
	.type	rmnet_mux_smd_data_rx_tlet, %function
rmnet_mux_smd_data_rx_tlet:
	.fnstart
	@ args = 0, pretend = 0, frame = 8
	@ frame_needed = 0, uses_anonymous_args = 0
	strd	r4, [sp, #-36]!
	.save {r4, r5, r6, r7, r8, r9, r10, fp, lr}
	mov	r5, r0
	strd	r6, [sp, #8]
	add	r6, r0, #356
	strd	r10, [sp, #24]
	strd	r8, [sp, #16]
	str	lr, [sp, #32]
	ldr	r3, [r0, #76]
	.pad #12
	sub	sp, sp, #12
	mov	r0, r6
	str	r3, [sp, #4]
	bl	_raw_spin_lock_irqsave(PLT)
	ldr	r3, [r5, #360]
	mov	fp, r0
	cmp	r3, #0
	beq	.L2086
	ldr	r4, [r5, #112]
	add	r7, r5, #112
	cmp	r7, r4
	addne	r3, r5, #104
	movne	r9, #256
	movne	r8, #512
	strne	r3, [sp]
	bne	.L2089
	b	.L2087
.L2090:
	ldrd	r2, [r4]
	str	r3, [r2, #4]
	str	r2, [r3]
	str	r9, [r4]
	str	r8, [r4, #4]
	bl	_raw_spin_unlock_irqrestore(PLT)
	ldr	r1, [r4, #-36]
	ldr	r2, [r4, #12]
	ldr	r0, [r5, #120]
	bl	smd_write(PLT)
	mov	r10, r0
	mov	r0, r6
	bl	_raw_spin_lock_irqsave(PLT)
	ldr	r3, [r4, #12]
	mov	fp, r0
	cmp	r10, r3
	bne	.L2099
	ldr	r3, [r5, #388]
	ldr	r1, [r5, #108]
	str	r4, [r5, #108]
	add	r3, r3, #1
	str	r3, [r5, #388]
	ldr	r3, [sp]
	str	r1, [r4, #4]
	str	r3, [r4]
	str	r4, [r1]
	ldr	r3, [r5, #360]
	cmp	r3, #0
	beq	.L2086
	ldr	r4, [r5, #112]
	cmp	r4, r7
	beq	.L2087
.L2089:
	ldr	r0, [r5, #120]
	bl	smd_write_avail(PLT)
	ldr	r3, [r4, #12]
	mov	r1, fp
	cmp	r0, r3
	mov	r0, r6
	bcs	.L2090
	str	r3, [r5, #168]
.L2086:
	mov	r0, r6
	mov	r1, fp
	bl	_raw_spin_unlock_irqrestore(PLT)
	mov	r0, r5
	add	sp, sp, #12
	@ sp needed
	ldrd	r4, [sp]
	ldrd	r6, [sp, #8]
	ldrd	r8, [sp, #16]
	ldrd	r10, [sp, #24]
	ldr	lr, [sp, #32]
	add	sp, sp, #36
	b	rmnet_mux_smd_start_rx(PLT)
.L2087:
	mov	r3, #0
	str	r3, [r5, #168]
	b	.L2086
.L2099:
	ldr	r3, [sp, #4]
	ldr	r1, .L2100
	ldr	r0, [r3]
.LPIC423:
	add	r1, pc, r1
	add	r0, r0, #32
	bl	dev_err(PLT)
	b	.L2086
.L2101:
	.align	2
.L2100:
	.word	.LC122-(.LPIC423+8)
	.fnend
	.size	rmnet_mux_smd_data_rx_tlet, .-rmnet_mux_smd_data_rx_tlet
	.align	2
	.type	rmnet_smd_complete_epin, %function
rmnet_smd_complete_epin:
	.fnstart
	@ args = 0, pretend = 0, frame = 0
	@ frame_needed = 0, uses_anonymous_args = 0
	strd	r4, [sp, #-24]!
	.save {r4, r5, r6, r7, r8, lr}
	mov	r5, r1
	strd	r6, [sp, #8]
	str	r8, [sp, #16]
	str	lr, [sp, #20]
	ldr	r2, [r1, #44]
	ldr	r4, [r1, #32]
	cmn	r2, #104
	ldr	r3, [r4, #76]
	beq	.L2104
	cmp	r2, #0
	beq	.L2105
	cmn	r2, #108
	beq	.L2104
	ldr	r0, [r3]
	ldr	r1, .L2126
	add	r0, r0, #32
.LPIC424:
	add	r1, pc, r1
	bl	dev_err(PLT)
.L2105:
	add	r6, r4, #156
	mov	r0, r6
	bl	_raw_spin_lock(PLT)
	ldr	r2, [r4, #132]
	add	r3, r4, #132
	cmp	r2, r3
	beq	.L2125
	ldr	r2, [r4, #136]
	add	r1, r5, #36
	str	r1, [r4, #136]
	str	r3, [r5, #36]
	str	r2, [r5, #40]
	str	r1, [r2]
	ldr	r3, [r4, #416]
	add	r3, r3, #1
	str	r3, [r4, #416]
.L2109:
	mov	r0, r6
.L2122:
	ldrd	r4, [sp]
	ldrd	r6, [sp, #8]
	ldr	r8, [sp, #16]
	ldr	lr, [sp, #20]
	add	sp, sp, #24
	b	_raw_spin_unlock(PLT)
.L2104:
	add	r6, r4, #156
	mov	r0, r6
	bl	_raw_spin_lock(PLT)
	ldr	r3, [r4, #136]
	add	r2, r5, #36
	add	r1, r4, #132
	mov	r0, r6
	str	r2, [r4, #136]
	str	r1, [r5, #36]
	str	r3, [r5, #40]
	str	r2, [r3]
	b	.L2122
.L2125:
	ldr	r3, [r4, #136]
	add	ip, r5, #36
	mov	r0, #0
	add	r1, r4, #324
	add	r7, r4, #320
	str	ip, [r4, #136]
	strd	r2, [r5, #36]
	str	ip, [r3]
	ldr	r3, [r4, #416]
	add	r3, r3, #1
	str	r3, [r4, #416]
	bl	_test_and_set_bit(PLT)
	cmp	r0, #0
	bne	.L2109
	mov	r0, r7
	bl	__tasklet_schedule(PLT)
	b	.L2109
.L2127:
	.align	2
.L2126:
	.word	.LC123-(.LPIC424+8)
	.fnend
	.size	rmnet_smd_complete_epin, .-rmnet_smd_complete_epin
	.align	2
	.type	rmnet_smd_setup, %function
rmnet_smd_setup:
	.fnstart
	@ args = 0, pretend = 0, frame = 8
	@ frame_needed = 0, uses_anonymous_args = 0
	strd	r4, [sp, #-36]!
	.save {r4, r5, r6, r7, r8, r9, r10, fp, lr}
	strd	r6, [sp, #8]
	strd	r8, [sp, #16]
	strd	r10, [sp, #24]
	str	lr, [sp, #32]
	ldr	r2, [r0, #20]
	.pad #28
	sub	sp, sp, #28
	ldr	r3, [r0, #160]
	ldrh	r10, [r1, #4]	@ unaligned
	ldrh	r7, [r1, #2]	@ unaligned
	ldr	r6, [r2, #24]
	cmp	r3, #0
	ldrh	r4, [r1, #6]	@ unaligned
	ldr	r5, [r6, #4]
	beq	.L2141
	mov	r8, r0
	ldrb	r3, [r1, #1]	@ zero_extendqisi2
	movw	r2, #8482
	ldrb	r0, [r1]	@ zero_extendqisi2
	orr	r3, r3, r0, asl #8
	cmp	r3, r2
	beq	.L2130
	movw	r2, #41217
	cmp	r3, r2
	beq	.L2131
	cmp	r3, #8448
	beq	.L2152
.L2143:
	mvn	r0, #94
.L2147:
	add	sp, sp, #28
	@ sp needed
	ldrd	r4, [sp]
	ldrd	r6, [sp, #8]
	ldrd	r8, [sp, #16]
	ldrd	r10, [sp, #24]
	add	sp, sp, #32
	ldr	pc, [sp], #4
.L2131:
	cmp	r7, #0
	bne	.L2143
	add	r9, r8, #156
	str	r1, [sp, #20]
	mov	r0, r9
	bl	_raw_spin_lock(PLT)
	mov	r3, r8
	ldr	r1, [sp, #20]
	ldr	fp, [r3, #124]!
	cmp	fp, r3
	beq	.L2153
	ldr	r3, [fp, #4]
	mov	ip, #256
	mov	r1, #512
	ldr	r2, [fp]
	mov	r0, r9
	str	r3, [r2, #4]
	str	r2, [r3]
	str	ip, [fp]
	str	r1, [fp, #4]
	bl	_raw_spin_unlock(PLT)
	ldmdb	fp, {r1, r2}
	ldr	r0, [r5]
	bl	memcpy(PLT)
	mov	r0, r9
	ldr	r4, [fp, #-4]
	bl	_raw_spin_lock(PLT)
	ldr	r2, [r8, #108]
	add	r3, r8, #108
	cmp	r2, r3
	beq	.L2154
	ldr	r2, [r8, #112]
	str	fp, [r8, #112]
	str	r3, [fp]
	str	r2, [fp, #4]
	str	fp, [r2]
.L2140:
	mov	r0, r9
	bl	_raw_spin_unlock(PLT)
	ldr	r3, .L2156
	str	r8, [r5, #32]
.LPIC427:
	add	r3, pc, r3
	str	r3, [r5, #28]
	b	.L2137
.L2152:
	ldr	r3, .L2156+4
	str	r8, [r5, #32]
.LPIC425:
	add	r3, pc, r3
	str	r3, [r5, #28]
.L2133:
	ldrb	r3, [r5, #26]	@ zero_extendqisi2
	str	r4, [r5, #4]
	mov	r1, r5
	mov	r2, #32
	bfc	r3, #1, #1
	strb	r3, [r5, #26]
	ldr	r3, [r6]
	ldr	r0, [r3, #4]
	ldr	r3, [r0, #8]
	ldr	r3, [r3, #16]
	blx	r3
	subs	r4, r0, #0
	blt	.L2155
.L2145:
	mov	r0, r4
	b	.L2147
.L2130:
	ands	r1, r7, #1
	ldr	r0, [r8, #252]
	movne	r1, #2
	movne	r2, #0
	moveq	r2, #2
	bl	smd_tiocmset(PLT)
	mov	r4, r0
.L2137:
	cmp	r4, #0
	bge	.L2133
	b	.L2145
.L2155:
	ldr	r0, [r6]
	mov	r2, r4
	ldr	r1, .L2156+8
	add	r0, r0, #32
.LPIC428:
	add	r1, pc, r1
	bl	dev_err(PLT)
	mov	r0, r4
	b	.L2147
.L2141:
	mvn	r0, #106
	b	.L2147
.L2154:
	ldr	r3, [r8, #112]
	mov	r0, r7
	str	fp, [r8, #112]
	add	r1, r8, #260
	str	r2, [fp]
	add	r7, r8, #256
	str	r3, [fp, #4]
	str	fp, [r3]
	bl	_test_and_set_bit(PLT)
	cmp	r0, #0
	bne	.L2140
	mov	r0, r7
	bl	__tasklet_schedule(PLT)
	b	.L2140
.L2153:
	ldr	r0, [r6]
	str	r7, [sp]
	ldrb	r2, [r1]	@ zero_extendqisi2
	str	r10, [sp, #4]
	ldrb	r3, [r1, #1]	@ zero_extendqisi2
	str	r4, [sp, #8]
	ldr	r1, .L2156+12
	add	r0, r0, #32
.LPIC426:
	add	r1, pc, r1
	bl	_dev_info(PLT)
	mov	r0, r9
	bl	_raw_spin_unlock(PLT)
	mvn	r0, #94
	b	.L2147
.L2157:
	.align	2
.L2156:
	.word	rmnet_txcommand_complete-(.LPIC427+8)
	.word	rmnet_smd_command_complete-(.LPIC425+8)
	.word	.LC62-(.LPIC428+8)
	.word	.LC86-(.LPIC426+8)
	.fnend
	.size	rmnet_smd_setup, .-rmnet_smd_setup
	.section	.exit.text
	.align	2
	.type	ghsuart_ctrl_exit, %function
ghsuart_ctrl_exit:
	.fnstart
	@ args = 0, pretend = 0, frame = 0
	@ frame_needed = 0, uses_anonymous_args = 0
	@ link register save eliminated.
	ldr	r3, .L2159
.LPIC429:
	add	r3, pc, r3
	ldr	r0, [r3, #-660]
	b	debugfs_remove_recursive(PLT)
.L2160:
	.align	2
.L2159:
	.word	.LANCHOR4-(.LPIC429+8)
	.fnend
	.size	ghsuart_ctrl_exit, .-ghsuart_ctrl_exit
	.align	2
	.type	ghsuart_data_exit, %function
ghsuart_data_exit:
	.fnstart
	@ args = 0, pretend = 0, frame = 0
	@ frame_needed = 0, uses_anonymous_args = 0
	@ link register save eliminated.
	ldr	r3, .L2162
.LPIC430:
	add	r3, pc, r3
	ldr	r0, [r3, #-656]
	b	debugfs_remove_recursive(PLT)
.L2163:
	.align	2
.L2162:
	.word	.LANCHOR4-(.LPIC430+8)
	.fnend
	.size	ghsuart_data_exit, .-ghsuart_data_exit
	.text
	.align	2
	.type	diag_function_cleanup, %function
diag_function_cleanup:
	.fnstart
	@ args = 0, pretend = 0, frame = 8
	@ frame_needed = 0, uses_anonymous_args = 0
	ldr	r3, .L2172
	strd	r4, [sp, #-24]!
	.save {r4, r5, r6, r7, r8, lr}
	strd	r6, [sp, #8]
	ldr	r7, .L2172+4
	str	r8, [sp, #16]
	str	lr, [sp, #20]
	.pad #8
	sub	sp, sp, #8
.LPIC437:
	ldr	r3, [pc, r3]		@ tls_load_dot_plus_eight
.LPIC432:
	add	r7, pc, r7
	ldr	r0, [r3]
	bl	debugfs_remove_recursive(PLT)
	ldr	r5, [r7]
	cmp	r5, r7
	ldr	r4, [r5]
	beq	.L2164
	ldr	r6, .L2172+8
.LPIC434:
	add	r6, pc, r6
	sub	r6, r6, #652
	mov	r8, r6
	b	.L2167
.L2169:
	mov	r4, r3
.L2167:
	mov	r0, r6
	bl	_raw_spin_lock_irqsave(PLT)
	ldr	r3, [r5, #12]
	mov	r1, r0
	cmp	r3, #0
	beq	.L2171
.L2166:
	mov	r0, r8
	mov	r5, r4
	bl	_raw_spin_unlock_irqrestore(PLT)
	cmp	r4, r7
	ldr	r3, [r4]
	bne	.L2169
.L2164:
	add	sp, sp, #8
	@ sp needed
	ldrd	r4, [sp]
	ldrd	r6, [sp, #8]
	ldr	r8, [sp, #16]
	add	sp, sp, #20
	ldr	pc, [sp], #4
.L2171:
	ldr	r3, [r5, #4]
	mov	lr, #256
	mov	ip, #512
	ldr	r2, [r5]
	str	r0, [sp, #4]
	sub	r0, r5, #4
	str	r3, [r2, #4]
	str	r2, [r3]
	str	lr, [r5]
	str	ip, [r5, #4]
	bl	kfree(PLT)
	ldr	r1, [sp, #4]
	b	.L2166
.L2173:
	.align	2
.L2172:
	.word	dent_diag(GOT_PREL)+(.-(.LPIC437+8))
	.word	.LANCHOR0-(.LPIC432+8)
	.word	.LANCHOR4-(.LPIC434+8)
	.fnend
	.size	diag_function_cleanup, .-diag_function_cleanup
	.align	2
	.type	rmnet_data_tx_tlet, %function
rmnet_data_tx_tlet:
	.fnstart
	@ args = 0, pretend = 0, frame = 0
	@ frame_needed = 0, uses_anonymous_args = 0
	strd	r4, [sp, #-32]!
	.save {r4, r5, r6, r7, r8, r9, r10, lr}
	mov	r5, r0
	strd	r6, [sp, #8]
	add	r6, r0, #156
	add	r7, r0, #132
	strd	r8, [sp, #16]
	mov	r8, #256
	str	r10, [sp, #24]
	str	lr, [sp, #28]
	ldr	r9, [r0, #76]
	b	.L2178
.L2185:
	ldr	r0, [r5, #316]
	bl	smd_read_avail(PLT)
	cmp	r10, r0
	mov	r0, r6
	bgt	.L2174
	bl	_raw_spin_lock_irqsave(PLT)
	ldr	r4, [r5, #132]
	mov	r3, r0
	mov	ip, #512
	mov	r0, r6
	mov	r1, r3
	cmp	r7, r4
	beq	.L2183
	ldrd	r2, [r4]
	str	r3, [r2, #4]
	str	r2, [r3]
	stmia	r4, {r8, ip}
	bl	_raw_spin_unlock_irqrestore(PLT)
	mov	r2, r10
	ldr	r1, [r4, #-36]
	ldr	r0, [r5, #316]
	bl	smd_read(PLT)
	str	r0, [r4, #-32]
	ldr	r0, [r5, #84]
	mov	r2, #32
	sub	r1, r4, #36
	ldr	r3, [r0, #8]
	ldr	r3, [r3, #16]
	blx	r3
	subs	r2, r0, #0
	mov	r0, r6
	bne	.L2184
	bl	_raw_spin_lock_irqsave(PLT)
	ldr	r3, [r5, #420]
	mov	r1, r0
	mov	r0, r6
	add	r3, r3, #1
	str	r3, [r5, #420]
	bl	_raw_spin_unlock_irqrestore(PLT)
.L2178:
	ldr	r0, [r5, #316]
	bl	smd_cur_packet_size(PLT)
	subs	r10, r0, #0
	bne	.L2185
.L2174:
	ldrd	r4, [sp]
	ldrd	r6, [sp, #8]
	ldrd	r8, [sp, #16]
	ldr	r10, [sp, #24]
	add	sp, sp, #28
	ldr	pc, [sp], #4
.L2184:
	ldr	r0, [r9]
	ldr	r1, .L2186
	add	r0, r0, #32
.LPIC438:
	add	r1, pc, r1
	bl	dev_err(PLT)
	mov	r0, r6
	bl	_raw_spin_lock_irqsave(PLT)
	ldr	r3, [r5, #136]
	mov	r1, r0
	mov	r0, r6
	str	r4, [r5, #136]
	str	r7, [r4]
	str	r3, [r4, #4]
	str	r4, [r3]
.L2183:
	ldrd	r4, [sp]
	ldrd	r6, [sp, #8]
	ldrd	r8, [sp, #16]
	ldr	r10, [sp, #24]
	ldr	lr, [sp, #28]
	add	sp, sp, #32
	b	_raw_spin_unlock_irqrestore(PLT)
.L2187:
	.align	2
.L2186:
	.word	.LC124-(.LPIC438+8)
	.fnend
	.size	rmnet_data_tx_tlet, .-rmnet_data_tx_tlet
	.align	2
	.type	rmnet_control_tx_tlet, %function
rmnet_control_tx_tlet:
	.fnstart
	@ args = 0, pretend = 0, frame = 8
	@ frame_needed = 0, uses_anonymous_args = 0
	strd	r4, [sp, #-36]!
	.save {r4, r5, r6, r7, r8, r9, r10, fp, lr}
	mov	r4, r0
	strd	r10, [sp, #24]
	ldr	r10, .L2201
	strd	r6, [sp, #8]
	add	r6, r0, #156
	strd	r8, [sp, #16]
	str	lr, [sp, #32]
	ldr	r3, [r0, #76]
	.pad #12
	sub	sp, sp, #12
.LPIC440:
	add	r10, pc, r10
	str	r3, [sp]
.L2193:
	add	r9, r4, #108
.L2192:
	mov	r8, #256
.L2191:
	ldr	r0, [r4, #252]
	add	r5, r4, #164
	bl	smd_cur_packet_size(PLT)
	subs	r7, r0, #0
	beq	.L2188
	ldr	r0, [r4, #252]
	bl	smd_read_avail(PLT)
	cmp	r7, r0
	mov	r0, r6
	bgt	.L2188
	bl	_raw_spin_lock_irqsave(PLT)
	ldr	fp, [r4, #108]
	mov	r2, r0
	mov	lr, #512
	mov	r0, r6
	mov	r1, r2
	cmp	fp, r9
	beq	.L2200
	ldr	ip, [fp]
	ldr	r2, [fp, #4]
	str	r2, [ip, #4]
	str	ip, [r2]
	stmia	fp, {r8, lr}
	bl	_raw_spin_unlock_irqrestore(PLT)
	mov	r2, r7
	ldr	r1, [fp, #-8]
	ldr	r0, [r4, #252]
	bl	smd_read(PLT)
	str	r0, [fp, #-4]
	mov	r0, r6
	bl	_raw_spin_lock_irqsave(PLT)
	ldr	ip, [r4, #436]
	add	r2, r4, #124
	mov	r1, r0
	ldr	lr, [r4, #128]
	mov	r0, r6
	str	fp, [r4, #128]
	add	ip, ip, #1
	str	ip, [r4, #436]
	stmia	fp, {r2, lr}
	str	fp, [lr]
	bl	_raw_spin_unlock_irqrestore(PLT)
	ldr	r3, [r4, #92]
	ldr	r7, [r4, #76]
	ldr	r3, [r3]
#APP
@ 61 "/home/ikke/Workspace/kernel_oneplus_onyx/arch/arm/include/asm/atomic.h" 1
	dmb
@ 0 "" 2
@ 63 "/home/ikke/Workspace/kernel_oneplus_onyx/arch/arm/include/asm/atomic.h" 1
	@ atomic_add_return
1:	ldrex	r2, [r5]
	add	r2, r2, #1
	strex	r1, r2, [r5]
	teq	r1, #0
	bne	1b
@ 0 "" 2
@ 73 "/home/ikke/Workspace/kernel_oneplus_onyx/arch/arm/include/asm/atomic.h" 1
	dmb
@ 0 "" 2
	cmp	r2, #1
	bne	.L2191
	mov	r1, #0
	mvn	r0, #94
	strb	r2, [r3, #1]
	mov	r2, #32
	strb	r0, [r3]
	strb	r1, [r3, #2]
	strb	r1, [r3, #3]
	ldrb	r0, [r4, #96]	@ zero_extendqisi2
	strb	r1, [r3, #6]
	strb	r1, [r3, #7]
	strh	r0, [r3, #4]	@ unaligned
	ldrd	r0, [r4, #88]
	ldr	r3, [r0, #8]
	ldr	r3, [r3, #16]
	blx	r3
	subs	r2, r0, #0
	bge	.L2192
#APP
@ 83 "/home/ikke/Workspace/kernel_oneplus_onyx/arch/arm/include/asm/atomic.h" 1
	@ atomic_sub
1:	ldrex	r3, [r5]
	sub	r3, r3, #1
	strex	r1, r3, [r5]
	teq	r1, #0
	bne	1b
@ 0 "" 2
	ldr	r0, [r7]
	mov	r1, r10
	add	r0, r0, #32
	bl	dev_err(PLT)
	b	.L2193
.L2188:
	add	sp, sp, #12
	@ sp needed
	ldrd	r4, [sp]
	ldrd	r6, [sp, #8]
	ldrd	r8, [sp, #16]
	ldrd	r10, [sp, #24]
	add	sp, sp, #32
	ldr	pc, [sp], #4
.L2200:
	ldr	r3, [sp]
	str	r2, [sp, #4]
	ldr	r1, .L2201+4
	ldr	r0, [r3]
.LPIC439:
	add	r1, pc, r1
	add	r0, r0, #32
	bl	dev_err(PLT)
	ldr	r2, [sp, #4]
	mov	r0, r6
	mov	r1, r2
	add	sp, sp, #12
	@ sp needed
	ldrd	r4, [sp]
	ldrd	r6, [sp, #8]
	ldrd	r8, [sp, #16]
	ldrd	r10, [sp, #24]
	ldr	lr, [sp, #32]
	add	sp, sp, #36
	b	_raw_spin_unlock_irqrestore(PLT)
.L2202:
	.align	2
.L2201:
	.word	.LC12-(.LPIC440+8)
	.word	.LC125-(.LPIC439+8)
	.fnend
	.size	rmnet_control_tx_tlet, .-rmnet_control_tx_tlet
	.align	2
	.type	rmnet_mux_smd_data_tx_tlet, %function
rmnet_mux_smd_data_tx_tlet:
	.fnstart
	@ args = 0, pretend = 0, frame = 0
	@ frame_needed = 0, uses_anonymous_args = 0
	strd	r4, [sp, #-32]!
	.save {r4, r5, r6, r7, r8, r9, r10, lr}
	strd	r6, [sp, #8]
	strd	r8, [sp, #16]
	str	r10, [sp, #24]
	str	lr, [sp, #28]
	ldr	r3, [r0, #360]
	ldr	r9, [r0, #76]
	cmp	r3, #0
	beq	.L2203
	mov	r5, r0
	add	r6, r0, #356
	add	r7, r0, #96
	mov	r8, #256
	b	.L2215
.L2219:
	ldr	r0, [r5, #120]
	bl	smd_read_avail(PLT)
	cmp	r10, r0
	mov	r0, r6
	bgt	.L2203
	bl	_raw_spin_lock_irqsave(PLT)
	ldr	r4, [r5, #96]
	mov	r3, r0
	mov	ip, #512
	mov	r0, r6
	mov	r1, r3
	cmp	r7, r4
	beq	.L2217
	ldrd	r2, [r4]
	str	r3, [r2, #4]
	str	r2, [r3]
	stmia	r4, {r8, ip}
	bl	_raw_spin_unlock_irqrestore(PLT)
	mov	r2, r10
	ldr	r1, [r4, #-36]
	ldr	r0, [r5, #120]
	bl	smd_read(PLT)
	str	r0, [r4, #-32]
	ldr	r0, [r5, #84]
	sub	r1, r4, #36
	mov	r2, #32
	ldr	r3, [r0, #8]
	ldr	r3, [r3, #16]
	blx	r3
	cmp	r0, #0
	bne	.L2218
	ldr	r3, [r5, #396]
	ldr	r2, [r5, #360]
	add	r3, r3, #1
	cmp	r2, #0
	str	r3, [r5, #396]
	beq	.L2203
.L2215:
	ldr	r0, [r5, #120]
	bl	smd_cur_packet_size(PLT)
	subs	r10, r0, #0
	bne	.L2219
.L2203:
	ldrd	r4, [sp]
	ldrd	r6, [sp, #8]
	ldrd	r8, [sp, #16]
	ldr	r10, [sp, #24]
	add	sp, sp, #28
	ldr	pc, [sp], #4
.L2218:
	ldr	r3, [r9]
	mov	r2, r0
	ldr	r1, .L2220
	add	r0, r3, #32
.LPIC441:
	add	r1, pc, r1
	bl	dev_err(PLT)
	mov	r0, r6
	bl	_raw_spin_lock_irqsave(PLT)
	ldr	r3, [r5, #100]
	mov	r1, r0
	mov	r0, r6
	str	r4, [r5, #100]
	str	r7, [r4]
	str	r3, [r4, #4]
	str	r4, [r3]
.L2217:
	ldrd	r4, [sp]
	ldrd	r6, [sp, #8]
	ldrd	r8, [sp, #16]
	ldr	r10, [sp, #24]
	ldr	lr, [sp, #28]
	add	sp, sp, #32
	b	_raw_spin_unlock_irqrestore(PLT)
.L2221:
	.align	2
.L2220:
	.word	.LC124-(.LPIC441+8)
	.fnend
	.size	rmnet_mux_smd_data_tx_tlet, .-rmnet_mux_smd_data_tx_tlet
	.align	2
	.type	gsmd_disconnect_work, %function
gsmd_disconnect_work:
	.fnstart
	@ args = 0, pretend = 0, frame = 0
	@ frame_needed = 0, uses_anonymous_args = 0
	.save {r4, lr}
	str	r4, [sp, #-8]!
	mov	r4, r0
	str	lr, [sp, #4]
	ldr	r3, [r0, #-52]
	ldr	r0, [r3]
	bl	smd_close(PLT)
	ldr	r3, [r4, #-52]
	mov	r2, #0
	str	r2, [r3]
	ldr	r4, [sp]
	add	sp, sp, #4
	ldr	pc, [sp], #4
	.fnend
	.size	gsmd_disconnect_work, .-gsmd_disconnect_work
	.align	2
	.type	rmnet_smd_disconnect_work, %function
rmnet_smd_disconnect_work:
	.fnstart
	@ args = 0, pretend = 0, frame = 0
	@ frame_needed = 0, uses_anonymous_args = 0
	strd	r4, [sp, #-16]!
	.save {r4, r5, r6, lr}
	mov	r4, r0
	sub	r0, r0, #124
	str	lr, [sp, #12]
	mov	r5, #0
	str	r6, [sp, #8]
	bl	tasklet_kill(PLT)
	sub	r0, r4, #144
	bl	tasklet_kill(PLT)
	sub	r0, r4, #60
	bl	tasklet_kill(PLT)
	sub	r0, r4, #80
	bl	tasklet_kill(PLT)
	ldr	r0, [r4, #-148]
	bl	smd_close(PLT)
	str	r5, [r4, #-104]
	ldr	r0, [r4, #-84]
	bl	smd_close(PLT)
	mov	r0, r4
	str	r5, [r4, #-40]
	str	r5, [r4, #-236]
	ldr	r3, [r0, #-252]!
	cmp	r3, r0
	ldr	r2, [r3]
	subne	r5, r4, #260
	movne	lr, #256
	movne	ip, #512
	beq	.L2229
.L2228:
	ldr	r1, [r3, #4]
	cmp	r0, r2
	str	r1, [r2, #4]
	str	r2, [r1]
	str	lr, [r3]
	str	ip, [r3, #4]
	ldr	r1, [r4, #-256]
	str	r3, [r4, #-256]
	str	r5, [r3]
	str	r1, [r3, #4]
	str	r3, [r1]
	mov	r3, r2
	ldr	r2, [r2]
	bne	.L2228
.L2229:
	mov	r0, r4
	ldr	r3, [r0, #-284]!
	cmp	r3, r0
	ldr	r2, [r3]
	subne	r5, r4, #300
	movne	lr, #256
	movne	ip, #512
	beq	.L2227
.L2232:
	ldr	r1, [r3, #4]
	cmp	r0, r2
	str	r1, [r2, #4]
	str	r2, [r1]
	str	lr, [r3]
	str	ip, [r3, #4]
	ldr	r1, [r4, #-296]
	str	r3, [r4, #-296]
	str	r5, [r3]
	str	r1, [r3, #4]
	str	r3, [r1]
	mov	r3, r2
	ldr	r2, [r2]
	bne	.L2232
.L2227:
	mov	r0, r4
	ldr	r3, [r0, #-276]!
	cmp	r3, r0
	ldr	r2, [r3]
	subne	r5, r4, #292
	movne	lr, #256
	movne	ip, #512
	beq	.L2231
.L2235:
	ldr	r1, [r3, #4]
	cmp	r0, r2
	str	r1, [r2, #4]
	str	r2, [r1]
	str	lr, [r3]
	str	ip, [r3, #4]
	ldr	r1, [r4, #-288]
	str	r3, [r4, #-288]
	str	r5, [r3]
	str	r1, [r3, #4]
	str	r3, [r1]
	mov	r3, r2
	ldr	r2, [r2]
	bne	.L2235
.L2231:
	ldrb	r3, [r4, #-152]	@ zero_extendqisi2
	cmp	r3, #0
	beq	.L2224
	sub	r0, r4, #232
	bl	platform_driver_unregister(PLT)
	mov	r3, #0
	strb	r3, [r4, #-152]
.L2224:
	ldrd	r4, [sp]
	ldr	r6, [sp, #8]
	add	sp, sp, #12
	ldr	pc, [sp], #4
	.fnend
	.size	rmnet_smd_disconnect_work, .-rmnet_smd_disconnect_work
	.align	2
	.type	grmnet_ctrl_smd_disconnect_w, %function
grmnet_ctrl_smd_disconnect_w:
	.fnstart
	@ args = 0, pretend = 0, frame = 0
	@ frame_needed = 0, uses_anonymous_args = 0
	.save {r4, lr}
	str	r4, [sp, #-8]!
	mov	r4, r0
	str	lr, [sp, #4]
	ldr	r0, [r0, #-160]
	cmp	r0, #0
	beq	.L2242
	bl	smd_close(PLT)
	mov	r3, #0
	str	r3, [r4, #-160]
.L2242:
	ldr	r3, [r4, #-152]
	tst	r3, #2
	bne	.L2243
	ldr	r3, [r4, #-152]
	tst	r3, #4
	beq	.L2241
.L2243:
	mov	r0, #2
	sub	r1, r4, #152
	bl	_clear_bit(PLT)
	ldr	r2, .L2249
	mov	r0, #84
	ldr	r3, [r4, #-60]
	ldr	lr, [sp, #4]
	ldr	r4, [sp]
	add	sp, sp, #8
.LPIC442:
	add	r2, pc, r2
	mla	r0, r0, r3, r2
	add	r0, r0, #536
	b	platform_driver_unregister(PLT)
.L2241:
	ldr	r4, [sp]
	add	sp, sp, #4
	ldr	pc, [sp], #4
.L2250:
	.align	2
.L2249:
	.word	.LANCHOR2-(.LPIC442+8)
	.fnend
	.size	grmnet_ctrl_smd_disconnect_w, .-grmnet_ctrl_smd_disconnect_w
	.section	.exit.text
	.align	2
	.type	cleanup, %function
cleanup:
	.fnstart
	@ args = 0, pretend = 0, frame = 0
	@ frame_needed = 0, uses_anonymous_args = 0
	@ link register save eliminated.
	ldr	r0, .L2252
.LPIC443:
	add	r0, pc, r0
	add	r0, r0, #32
	b	platform_driver_unregister(PLT)
.L2253:
	.align	2
.L2252:
	.word	.LANCHOR0-(.LPIC443+8)
	.fnend
	.size	cleanup, .-cleanup
	.text
	.align	2
	.type	rmnet_smd_connect_work, %function
rmnet_smd_connect_work:
	.fnstart
	@ args = 0, pretend = 0, frame = 24
	@ frame_needed = 0, uses_anonymous_args = 0
	ldr	ip, .L2270
	sub	r1, r0, #132
	strd	r4, [sp, #-20]!
	.save {r4, r5, r6, r7, lr}
	ldr	r3, .L2270+4
	strd	r6, [sp, #8]
	mov	r2, r1
	str	lr, [sp, #16]
	mov	r4, r0
	ldr	r7, [r0, #-308]
	.pad #28
	sub	sp, sp, #28
.LPIC444:
	add	ip, pc, ip
.LPIC445:
	add	r3, pc, r3
	ldr	r0, [ip, #112]
	bl	smd_open(PLT)
	subs	r2, r0, #0
	bne	.L2266
	ldr	r3, [r4, #-88]
	ands	r3, r3, #1
	bne	.L2258
	ldr	r2, .L2270+8
	mov	r1, sp
	str	r3, [sp, #4]
	bic	r1, r1, #8128
	add	r3, sp, #16
	bic	r1, r1, #63
	sub	r6, r4, #80
	ldr	r1, [r1, #12]
	add	r5, sp, #4
	str	r3, [sp, #16]
.LPIC453:
	ldr	r2, [pc, r2]		@ tls_load_dot_plus_eight
	str	r3, [sp, #20]
	str	r1, [sp, #8]
	str	r2, [sp, #12]
	b	.L2260
.L2267:
	bl	schedule(PLT)
.L2260:
	mov	r0, r6
	mov	r1, r5
	mov	r2, #2
	bl	prepare_to_wait(PLT)
	ldr	r3, [r4, #-88]
	tst	r3, #1
	beq	.L2267
	mov	r0, r6
	mov	r1, r5
	bl	finish_wait(PLT)
.L2258:
	ldr	r0, .L2270+12
	sub	r1, r4, #68
	ldr	r3, .L2270+16
	mov	r2, r1
.LPIC449:
	add	r0, pc, r0
.LPIC450:
	add	r3, pc, r3
	ldr	r0, [r0, #116]
	bl	smd_open(PLT)
	cmp	r0, #0
	bne	.L2268
	ldr	r3, [r4, #-24]
	ands	r3, r3, #1
	bne	.L2262
	ldr	r2, .L2270+20
	mov	r1, sp
	str	r3, [sp, #4]
	bic	r1, r1, #8128
	add	r3, sp, #16
	bic	r1, r1, #63
	sub	r6, r4, #16
	ldr	r1, [r1, #12]
	add	r5, sp, #4
	str	r3, [sp, #16]
.LPIC452:
	ldr	r2, [pc, r2]		@ tls_load_dot_plus_eight
	str	r3, [sp, #20]
	str	r1, [sp, #8]
	str	r2, [sp, #12]
	b	.L2264
.L2269:
	bl	schedule(PLT)
.L2264:
	mov	r0, r6
	mov	r1, r5
	mov	r2, #2
	bl	prepare_to_wait(PLT)
	ldr	r3, [r4, #-24]
	tst	r3, #1
	beq	.L2269
	mov	r0, r6
	mov	r1, r5
	bl	finish_wait(PLT)
.L2262:
	mov	r3, #1
	sub	r0, r4, #384
	str	r3, [r4, #-224]
	bl	rmnet_smd_start_rx(PLT)
.L2254:
	add	sp, sp, #28
	@ sp needed
	ldrd	r4, [sp]
	ldrd	r6, [sp, #8]
	add	sp, sp, #16
	ldr	pc, [sp], #4
.L2266:
	ldr	r0, [r7]
	ldr	r1, .L2270+24
	add	r0, r0, #32
.LPIC446:
	add	r1, pc, r1
	bl	dev_err(PLT)
	ldrb	r3, [r4, #-136]	@ zero_extendqisi2
	cmp	r3, #0
	bne	.L2254
	sub	r0, r4, #216
	bl	platform_driver_register(PLT)
	subs	r3, r0, #0
	moveq	r3, #1
	streqb	r3, [r4, #-136]
	beq	.L2254
	ldr	r0, [r7]
	ldr	r1, .L2270+28
	ldr	r2, [r4, #-196]
	add	r0, r0, #32
.LPIC447:
	add	r1, pc, r1
	bl	dev_err(PLT)
	b	.L2254
.L2268:
	ldr	r0, [r7]
	ldr	r1, .L2270+32
	add	r0, r0, #32
.LPIC451:
	add	r1, pc, r1
	bl	dev_err(PLT)
	ldr	r0, [r4, #-132]
	bl	smd_close(PLT)
	b	.L2254
.L2271:
	.align	2
.L2270:
	.word	.LANCHOR0-(.LPIC444+8)
	.word	rmnet_smd_event_notify-(.LPIC445+8)
	.word	autoremove_wake_function(GOT_PREL)+(.-(.LPIC453+8))
	.word	.LANCHOR0-(.LPIC449+8)
	.word	rmnet_smd_event_notify-(.LPIC450+8)
	.word	autoremove_wake_function(GOT_PREL)+(.-(.LPIC452+8))
	.word	.LC126-(.LPIC446+8)
	.word	.LC127-(.LPIC447+8)
	.word	.LC128-(.LPIC451+8)
	.fnend
	.size	rmnet_smd_connect_work, .-rmnet_smd_connect_work
	.align	2
	.type	grmnet_ctrl_smd_read_w, %function
grmnet_ctrl_smd_read_w:
	.fnstart
	@ args = 0, pretend = 0, frame = 32
	@ frame_needed = 0, uses_anonymous_args = 0
	strd	r4, [sp, #-36]!
	.save {r4, r5, r6, r7, r8, r9, r10, fp, lr}
	mov	r4, r0
	strd	r6, [sp, #8]
	strd	r8, [sp, #16]
	strd	r10, [sp, #24]
	str	lr, [sp, #32]
	ldr	r3, [r0, #32]
	.pad #36
	sub	sp, sp, #36
	str	r3, [sp, #4]
	add	r3, r3, #108
	mov	r0, r3
	str	r3, [sp]
	bl	_raw_spin_lock_irqsave(PLT)
	mov	r5, r0
	ldr	r0, [r4, #-52]
	cmp	r0, #0
	beq	.L2273
	mov	r3, sp
	bic	r10, r3, #8128
	bic	r10, r10, #63
.L2285:
	bl	smd_cur_packet_size(PLT)
	subs	r8, r0, #0
	ble	.L2273
	mov	r1, r5
	ldr	r0, [sp]
	bl	_raw_spin_unlock_irqrestore(PLT)
	mov	r0, r8
	mov	r1, #208
	bl	__kmalloc(PLT)
	subs	r9, r0, #0
	beq	.L2272
	mov	r7, #0
.L2283:
	ldr	r0, [r4, #-52]
	bl	smd_read_avail(PLT)
	subs	fp, r0, #0
	bne	.L2275
	ldr	r0, [r4, #-52]
	cmp	r0, #0
	beq	.L2276
	ldr	r1, .L2310
	add	r3, sp, #24
	add	r5, sp, #12
	ldr	r0, [r10, #12]
	sub	r6, r4, #28
	str	fp, [sp, #12]
	str	r3, [sp, #24]
	str	r3, [sp, #28]
.LPIC461:
	ldr	r1, [pc, r1]		@ tls_load_dot_plus_eight
	strd	r0, [sp, #16]
	b	.L2278
.L2307:
	ldr	r3, [r4, #-52]
	cmp	r3, #0
	beq	.L2277
	bl	schedule(PLT)
.L2278:
	mov	r0, r6
	mov	r1, r5
	mov	r2, #2
	bl	prepare_to_wait(PLT)
